ccopy_reg
_reconstructor
p1
(ctensorflow.contrib.learn.python.learn.preprocessing.text
VocabularyProcessor
p2
c__builtin__
object
p3
NtRp4
(dp5
S'vocabulary_'
p6
g1
(ctensorflow.contrib.learn.python.learn.preprocessing.categorical_vocabulary
CategoricalVocabulary
p7
g3
NtRp8
(dp9
S'_freeze'
p10
I01
sS'_unknown_token'
p11
S'<UNK>'
p12
sS'_support_reverse'
p13
I01
sS'_freq'
p14
ccollections
defaultdict
p15
(c__builtin__
int
p16
tRp17
S'protest'
p18
I3
sS'controversial'
p19
I1
sS'aides'
p20
I1
sS'captain'
p21
I1
sS'hate'
p22
I3
sS'disability'
p23
I1
sS'mwc'
p24
I2
sS'under'
p25
I1
sS'onstage'
p26
I1
sS'worth'
p27
I1
sS'school'
p28
I1
sS'math'
p29
I1
sS'force'
p30
I1
sS'concise'
p31
I1
sS'miller'
p32
I1
sS'warns'
p33
I4
sS'street'
p34
I2
sS'even'
p35
I1
sS'brexit'
p36
I4
sS'liam'
p37
I1
sS'thunder'
p38
I1
sS'new'
p39
I11
sS'carpet'
p40
I3
sS'ever'
p41
I2
sS'seeks'
p42
I3
sS'told'
p43
I1
sS'helmets'
p44
I1
sS'meg'
p45
I1
sS'sinks'
p46
I1
sS'never'
p47
I1
sS'richest'
p48
I1
sS'ramps'
p49
I1
sS'hundreds'
p50
I1
sS'reported'
p51
I1
sS'protection'
p52
I1
sS'china'
p53
I4
sS'kicker'
p54
I1
sS'100'
p55
I1
sS'generals'
p56
I1
sS'economics'
p57
I1
sS'reports'
p58
I1
sS'controversy'
p59
I1
sS'gymnast'
p60
I1
sS'crisprcas9'
p61
I1
sS'omar'
p62
I2
sS'military'
p63
I1
sS'theres'
p64
I1
sS'changes'
p65
I1
sS'resurrected'
p66
I1
sS'campaign'
p67
I3
sS'county'
p68
I1
sS'patience'
p69
I1
sS'neil'
p70
I1
sS'plot'
p71
I2
sS'spoke'
p72
I1
sS'dnc'
p73
I2
sS'liftoff'
p74
I1
sS'hospital'
p75
I1
sS'call'
p76
I5
sS'calm'
p77
I1
sS'strike'
p78
I1
sS'tell'
p79
I2
sS'musk'
p80
I1
sS'paperwork'
p81
I1
sS'supporters'
p82
I1
sS'oscar'
p83
I6
sS'award'
p84
I1
sS'phone'
p85
I3
sS'championships'
p86
I3
sS'hold'
p87
I2
sS'dietmar'
p88
I1
sS'must'
p89
I3
sS'shoot'
p90
I1
sS'1993'
p91
I1
sS'join'
p92
I1
sS'jess'
p93
I1
sS'mo'
p94
I2
sS'la\xc2'
p95
I1
sS'mp'
p96
I1
sS'ms'
p97
I1
sS'addictive'
p98
I1
sS'give'
p99
I3
sS'cited'
p100
I1
sS'indies'
p101
I2
sS'waiting\xc2'
p102
I1
sS'want'
p103
I3
sS'organizer'
p104
I1
sS'david'
p105
I3
sS'ceremony'
p106
I1
sS'turn'
p107
I1
sS'travel'
p108
I3
sS'feature'
p109
I1
sS'how'
p110
I4
sS'hot'
p111
I1
sS'beauty'
p112
I1
sS'mess'
p113
I1
sS'lag'
p114
I1
sS'wrong'
p115
I1
sS'lay'
p116
I1
sS'president'
p117
I4
sS'law'
p118
I1
sS'deutsche'
p119
I1
sS'luring'
p120
I1
sS'green'
p121
I1
sS'amit'
p122
I1
sS'democratic'
p123
I2
sS'amir'
p124
I1
sS'executed'
p125
I1
sS'flynns'
p126
I1
sS'office'
p127
I1
sS'dreamed'
p128
I1
sS'over'
p129
I2
sS'murray'
p130
I2
sS'bombing'
p131
I1
sS'twitter'
p132
I1
sS'christie'
p133
I1
sS'better'
p134
I2
sS'wales'
p135
I2
sS'taxreporting'
p136
I1
sS'bingham'
p137
I1
sS'at\xc2'
p138
I1
sS'tourist'
p139
I2
sS'thrones'
p140
I1
sS'safe'
p141
I1
sS'break'
p142
I2
sS'bank'
p143
I3
sS'alex'
p144
I2
sS'alexis'
p145
I1
sS'filling'
p146
I1
sS'each'
p147
I1
sS'went'
p148
I1
sS'pences'
p149
I1
sS'bond'
p150
I1
sS'pimcos'
p151
I1
sS'lifted'
p152
I1
sS'financial'
p153
I1
sS'series'
p154
I2
sS'satellite'
p155
I1
sS'aide'
p156
I2
sS'used'
p157
I1
sS'stealing'
p158
I1
sS'navy'
p159
I2
sS'whining'
p160
I1
sS'ha'
p161
I1
sS'welsh'
p162
I2
sS'hangouts'
p163
I1
sS'cowell'
p164
I1
sS'gop'
p165
I3
sS'independence'
p166
I1
sS'earths'
p167
I1
sS'given'
p168
I1
sS'free'
p169
I4
sS'admits'
p170
I1
sS'struggle'
p171
I1
sS'wanted'
p172
I1
sS'jaziri'
p173
I1
sS'fret'
p174
I1
sS'refugee'
p175
I1
sS'days'
p176
I1
sS'pence'
p177
I3
sS'1970s'
p178
I1
sS'already'
p179
I1
sS'daunting'
p180
I1
sS'champs'
p181
I1
sS'coding'
p182
I1
sS'hearing'
p183
I2
sS'antarctic'
p184
I1
sS'enterprisefriendly'
p185
I1
sS'toy'
p186
I1
sS'service'
p187
I2
sS'top'
p188
I4
sS'needed'
p189
I1
sS'garry'
p190
I1
sS'kante'
p191
I1
sS'john'
p192
I3
sS'rewards'
p193
I1
sS'wasted'
p194
I1
sS'peril'
p195
I1
sS'hike'
p196
I4
sS'immigrants'
p197
I1
sS'nations'
p198
I7
sS'project'
p199
I2
sS'exwife'
p200
I1
sS'haye'
p201
I1
sS'hacking'
p202
I1
sS'sees'
p203
I1
sS'boston'
p204
I1
sS'ram'
p205
I1
sS'tells'
p206
I1
sS'genuine'
p207
I1
sS'\xc2'
I2
sS'hammond'
p208
I1
sS'what'
p209
I2
sS'shale'
p210
I1
sS'germany'
p211
I2
sS'cummings'
p212
I1
sS'letter'
p213
I1
sS'claims'
p214
I2
sS'riverdale'
p215
I1
sS'episode'
p216
I2
sS'doe'
p217
I2
sS'reputation'
p218
I1
sS'tech'
p219
I2
sS'russiagate'
p220
I1
sS'voting'
p221
I1
sS'dow'
p222
I1
sS'saying'
p223
I1
sS'bomb'
p224
I1
sS'ambassador'
p225
I1
sS'lewis'
p226
I2
sS'probe'
p227
I5
sS'ending'
p228
I1
sS'prix'
p229
I2
sS'qaeda'
p230
I1
sS'radio'
p231
I4
sS'orleans'
p232
I1
sS'just'
p233
I1
sS'bush'
p234
I1
sS'rich'
p235
I1
sS'watch'
p236
I7
sS'dc'
p237
I1
sS'watson'
p238
I2
sS'27year'
p239
I1
sS'despite'
p240
I1
sS'report'
p241
I2
sS'johanna'
p242
I1
sS'new\xc2'
p243
I1
sS'rowing'
p244
I1
sS'troop'
p245
I1
sS'release'
p246
I1
sS'singhal'
p247
I1
sS'lavrov'
p248
I1
sS'secretary'
p249
I4
sS'testing'
p250
I3
sS'galaxy\xc2'
p251
I1
sS'full'
p252
I1
sS'abdelrahman'
p253
I1
sS'result'
p254
I1
sS'gladiator'
p255
I1
sS'00'
p256
I1
sS'said'
p257
I1
sS'ambitions'
p258
I1
sS'basics\xc2'
p259
I1
sS'facebooks'
p260
I1
sS'score'
p261
I2
sS'discovers'
p262
I1
sS'ira'
p263
I1
sS'stathams'
p264
I1
sS'we'
p265
I3
sS'men'
p266
I1
sS'wa'
p267
I3
sS'chaffetz'
p268
I1
sS'confusion'
p269
I1
sS'downgrades'
p270
I1
sS'staking'
p271
I1
sS'here'
p272
I1
sS'news'
p273
I6
sS'debt'
p274
I1
sS'climate'
p275
I1
sS'ill'
p276
I1
sS'uncertainty'
p277
I1
sS'games'
p278
I1
sS'planned'
p279
I1
sS'tony'
p280
I2
sS'trust'
p281
I1
sS'raith'
p282
I1
sS'speak'
p283
I1
sS'conference'
p284
I3
sS'asks'
p285
I1
sS'basis'
p286
I1
sS'union'
p287
I3
sS'buffett'
p288
I4
sS'sachs'
p289
I1
sS'fake\xc2'
p290
I1
sS'website'
p291
I1
sS'life'
p292
I1
sS'usada'
p293
I1
sS'attacked'
p294
I1
sS'republicans'
p295
I3
sS'worker'
p296
I1
sS'lift'
p297
I1
sS'child'
p298
I2
sS'worked'
p299
I1
sS'commerce'
p300
I1
sS'sportscenter'
p301
I1
sS'air'
p302
I1
sS'aim'
p303
I1
sS'slam'
p304
I1
sS'abrupt'
p305
I1
sS'stopping'
p306
I1
sS'voice'
p307
I1
sS'launched'
p308
I1
sS'mistake'
p309
I2
sS'mexico'
p310
I1
sS'is'
p311
I4
sS'dumped'
p312
I1
sS'huaweis'
p313
I1
sS'im'
p314
I1
sS'in'
p315
I7
sS'id'
p316
I1
sS'disappear'
p317
I1
sS'if'
p318
I2
sS'grown'
p319
I1
sS'credit'
p320
I1
sS'patent'
p321
I1
sS'things'
p322
I1
sS'make'
p323
I1
sS'sidelined'
p324
I1
sS'several'
p325
I1
sS'wheel'
p326
I1
sS'independent'
p327
I1
sS'elli'
p328
I1
sS'raid'
p329
I2
sS'outspends'
p330
I1
sS'governors'
p331
I2
sS'kim'
p332
I5
sS'dark'
p333
I1
sS'kid'
p334
I2
sS'knockoff'
p335
I1
sS'kept'
p336
I1
sS'programs'
p337
I1
sS'contact'
p338
I1
sS'twostate'
p339
I1
sS'mother'
p340
I1
sS'hearts'
p341
I1
sS'the'
p342
I17
sS'800'
p343
I1
sS'epa'
p344
I2
sS'proposed'
p345
I1
sS'everton'
p346
I1
sS'birmingham'
p347
I1
sS'victim'
p348
I1
sS'facts'
p349
I1
sS'jose'
p350
I1
sS'broncos'
p351
I1
sS'assassination'
p352
I1
sS'had'
p353
I1
sS'potential'
p354
I1
sS'prison'
p355
I2
sS'fares'
p356
I1
sS'has'
p357
I2
sS'preseason'
p358
I1
sS'rahman'
p359
I1
sS'newcastle'
p360
I1
sS'judge'
p361
I1
sS'apart'
p362
I1
sS'54'
p363
I1
sS'50'
p364
I1
sS'53'
p365
I1
sS'officer'
p366
I1
sS'security'
p367
I5
sS'attorney'
p368
I2
sS'right'
p369
I3
sS'old'
p370
I1
sS'deal'
p371
I1
sS'people'
p372
I6
sS'sends'
p373
I1
sS'dead'
p374
I1
sS'malaysia'
p375
I1
sS'donald'
p376
I3
sS'election'
p377
I4
sS'harassment'
p378
I3
sS'denies'
p379
I2
sS'for'
p380
I2
sS'fox'
p381
I1
sS'ice'
p382
I1
sS'fog'
p383
I1
sS'shakespeare'
p384
I1
sS'cnn'
p385
I26
sS'convict'
p386
I1
sS'shakes'
p387
I2
sS'paid'
p388
I1
sS'memorable'
p389
I1
sS'post'
p390
I1
sS'super'
p391
I1
sS'stokes'
p392
I1
sS'ferraris'
p393
I1
sS'would'
p394
I1
sS'coral'
p395
I1
sS'accepts'
p396
I1
sS'undocumented'
p397
I1
sS'dinner'
p398
I4
sS'bannon'
p399
I1
sS'nixon'
p400
I1
sS'son'
p401
I1
sS'marshals'
p402
I1
sS'wrap'
p403
I1
sS'crowd'
p404
I2
sS'support'
p405
I4
sS'tennis'
p406
I1
sS'fight'
p407
I2
sS'joseph'
p408
I1
sS'way'
p409
I2
sS'was'
p410
I1
sS'war'
p411
I1
sS'launching'
p412
I1
sS'lowest'
p413
I1
sS'head'
p414
I2
sS'medium'
p415
I3
sS'offer'
p416
I1
sS'removes'
p417
I1
sS'hindenburg'
p418
I1
sS'isis'
p419
I1
sS'silliness'
p420
I1
sS'inside'
p421
I1
sS'anew'
p422
I1
sS'pricing'
p423
I1
sS'promises'
p424
I2
sS'looms'
p425
I2
sS'tesla'
p426
I3
sS'tournament'
p427
I2
sS'ferrell'
p428
I1
sS'kaufman'
p429
I1
sS'corbyn'
p430
I4
sS'elon'
p431
I1
sS'perez'
p432
I4
sS'trip'
p433
I1
sS'no'
p434
I1
sS'actor'
p435
I3
sS'warms'
p436
I1
sS'role'
p437
I1
sS'brings'
p438
I2
sS'test'
p439
I5
sS'picture'
p440
I6
sS'football'
p441
I1
sS'devos'
p442
I1
sS'stoke'
p443
I1
sS'tottenham'
p444
I1
sS'died'
p445
I2
sS'jones'
p446
I3
sS'faster'
p447
I1
sS'1800'
p448
I1
sS'trumprussia'
p449
I2
sS'vietnam'
p450
I1
sS'time'
p451
I3
sS'serious'
p452
I1
sS'coach'
p453
I1
sS'skip'
p454
I2
sS'roe'
p455
I2
sS'laura'
p456
I2
sS'manager'
p457
I2
sS'battle'
p458
I1
sS'chair'
p459
I1
sS'varnish'
p460
I1
sS'leicester'
p461
I10
sS'obamacare'
p462
I5
sS'charge'
p463
I2
sS'marks'
p464
I1
sS'terror'
p465
I2
sS'pay'
p466
I1
sS'adviser'
p467
I4
sS'ginsburg'
p468
I1
sS'anonymous'
p469
I1
sS'word'
p470
I1
sS'swapping'
p471
I1
sS'turns'
p472
I1
sS'accidentally'
p473
I1
sS'goodlatte'
p474
I1
sS'team'
p475
I2
sS'speculation'
p476
I1
sS'round'
p477
I1
sS'olympic'
p478
I2
sS'heinz'
p479
I1
sS'says'
p480
I9
sS'adulation'
p481
I1
sS'draymond'
p482
I1
sS'fear'
p483
I1
sS'resurgence'
p484
I1
sS'heres'
p485
I2
sS'supporter'
p486
I2
sS'suspect'
p487
I2
sS'goes'
p488
I1
sS'international'
p489
I1
sS'falling'
p490
I1
sS'lynchclinton'
p491
I1
sS'boost'
p492
I2
sS'halts'
p493
I1
sS'gestede'
p494
I1
sS'address'
p495
I3
sS'change'
p496
I2
sS'yemen'
p497
I1
sS'bos'
p498
I2
sS'guilty'
p499
I1
sS'paxton'
p500
I3
sS'love'
p501
I1
sS'uzi'
p502
I1
sS'ipo'
p503
I3
sS'retires'
p504
I1
sS'stings'
p505
I1
sS'fake'
p506
I1
sS'utds'
p507
I1
sS'crisis'
p508
I2
sS'market'
p509
I2
sS'troops'
p510
I1
sS'working'
p511
I2
sS'tillerson'
p512
I1
sS'france'
p513
I2
sS'live'
p514
I9
sS'andy'
p515
I2
sS'films'
p516
I1
sS'scope'
p517
I1
sS'prep'
p518
I1
sS'today'
p519
I1
sS'ayr'
p520
I1
sS'riot'
p521
I1
sS'sessions'
p522
I7
sS'club'
p523
I2
sS'teases'
p524
I1
sS'fly'
p525
I3
sS'avoiding'
p526
I1
sS'abortion'
p527
I1
sS'judd'
p528
I1
sS'flagship'
p529
I1
sS'recap'
p530
I4
sS'can'
p531
I2
sS'dispute'
p532
I1
sS'claim'
p533
I3
sS'trump'
p534
I61
sS'figure'
p535
I1
sS'vauxhall'
p536
I1
sS'agent'
p537
I1
sS'and\xc2'
p538
I2
sS'supremacy'
p539
I1
sS'fortunes'
p540
I1
sS'abort'
p541
I1
sS'council'
p542
I1
sS'stole'
p543
I1
sS's8'
p544
I2
sS'winter'
p545
I1
sS's3'
p546
I1
sS'ping'
p547
I1
sS'1'
I1
sS'korbut'
p548
I1
sS'speaks'
p549
I1
sS'economy'
p550
I2
sS'snaps'
p551
I2
sS'may'
p552
I6
sS'southern'
p553
I1
sS'islamic'
p554
I1
sS'date'
p555
I1
sS'nomination'
p556
I2
sS'man'
p557
I6
sS'ruckgate'
p558
I1
sS'johnson'
p559
I1
sS'moroccans'
p560
I1
sS'bluster'
p561
I1
sS'misbegotten'
p562
I1
sS'sp'
p563
I1
sS'tale'
p564
I1
sS'truck'
p565
I1
sS'unleash'
p566
I1
sS'wolves'
p567
I1
sS'talk'
p568
I2
sS'2718'
p569
I2
sS'cyclist'
p570
I1
sS'years'
p571
I2
sS'brain'
p572
I1
sS'flagships'
p573
I1
sS'tablets'
p574
I1
sS'cuts'
p575
I2
sS'still'
p576
I2
sS'mixup'
p577
I3
sS'group'
p578
I1
sS'monitor'
p579
I1
sS'theranos'
p580
I1
sS'window'
p581
I1
sS'offers'
p582
I1
sS'policy'
p583
I1
sS'bipartisan'
p584
I1
sS'undermines'
p585
I1
sS'killer'
p586
I1
sS'nation'
p587
I1
sS'hamilton'
p588
I3
sS'subscribers'
p589
I1
sS'not'
p590
I3
sS'now'
p591
I2
sS'hall'
p592
I1
sS'wont'
p593
I2
sS'term'
p594
I1
sS'james'
p595
I1
sS'espns'
p596
I1
sS'nams'
p597
I1
sS'el'
p598
I1
sS'kane'
p599
I1
sS'year'
p600
I3
sS'eu'
p601
I1
sS'girl'
p602
I1
sS'summary'
p603
I1
sS'seoul'
p604
I1
sS'bullish'
p605
I1
sS'space'
p606
I2
sS'irony'
p607
I1
sS'looking'
p608
I2
sS'investigation'
p609
I2
sS'dutch'
p610
I1
sS'formula'
p611
I1
sS'shows'
p612
I3
sS'after'
p613
I5
sS'theory'
p614
I2
sS'lawmaker'
p615
I2
sS'million'
p616
I5
sS'california'
p617
I1
sS'rebel'
p618
I1
sS'quits'
p619
I1
sS'marine'
p620
I1
sS'care'
p621
I3
sS'british'
p622
I2
sS'thing'
p623
I2
sS'husband'
p624
I1
sS'first'
p625
I6
sS'blind'
p626
I2
sS'sanchez'
p627
I1
sS'one'
p628
I3
sS'opec'
p629
I1
sS'temporarily'
p630
I1
sS'suspended'
p631
I1
sS'open'
p632
I1
sS'george'
p633
I1
sS'millions'
p634
I1
sS'city'
p635
I7
sS'little'
p636
I2
sS'espn'
p637
I1
sS'ibrahimovic'
p638
I2
sS'anyone'
p639
I1
sS'2'
I4
sS'white'
p640
I9
sS'1m'
p641
I1
sS'national'
p642
I2
sS'friend'
p643
I3
sS'gives'
p644
I1
sS'briton'
p645
I1
sS'season'
p646
I1
sS'italys'
p647
I1
sS'junkyard'
p648
I1
sS'than'
p649
I1
sS'10'
p650
I7
sS'12'
p651
I2
sS'optimism'
p652
I1
sS'future'
p653
I2
sS'apples'
p654
I1
sS'zuckerbergs'
p655
I1
sS'were'
p656
I1
sS'harewood'
p657
I1
sS'russia'
p658
I11
sS'shakeup'
p659
I1
sS'and'
p660
I1
sS'investors'
p661
I1
sS'craig'
p662
I1
sS'premier'
p663
I1
sS'turned'
p664
I1
sS'say'
p665
I7
sS'conspiracy'
p666
I1
sS'scotlands'
p667
I1
sS'lockheeds'
p668
I1
sS'kevin'
p669
I2
sS'on\xc2'
p670
I1
sS'warriors'
p671
I2
sS'zoo'
p672
I1
sS'salvadors'
p673
I1
sS'squad'
p674
I1
sS'take'
p675
I3
sS'switching'
p676
I1
sS'urge'
p677
I1
sS'begin'
p678
I1
sS'investigations'
p679
I1
sS'knew'
p680
I2
sS'streaming\xc2'
p681
I1
sS'secondhalf'
p682
I1
sS'sutton'
p683
I1
sS'egg'
p684
I1
sS'hungry'
p685
I1
sS'ways'
p686
I1
sS'senior'
p687
I2
sS'precise'
p688
I1
sS'shot'
p689
I1
sS'show'
p690
I2
sS'allegations'
p691
I1
sS'surface\xc2'
p692
I1
sS'spacex'
p693
I6
sS'ground'
p694
I1
sS'pivots'
p695
I1
sS'slow'
p696
I1
sS'title'
p697
I1
sS'saints'
p698
I2
sS'behind'
p699
I1
sS'crime'
p700
I1
sS'liberation'
p701
I1
sS'going'
p702
I1
sS'black'
p703
I2
sS'caroline'
p704
I1
sS'awareness'
p705
I1
sS'carolina'
p706
I1
sS'hippo'
p707
I1
sS'get'
p708
I4
sS'assistant'
p709
I1
sS'cannot'
p710
I1
sS'nearly'
p711
I1
sS'hedge'
p712
I2
sS'gem'
p713
I1
sS'worried'
p714
I2
sS'roger'
p715
I1
sS'where'
p716
I1
sS'prosecutions'
p717
I1
sS'vision'
p718
I2
sS'iicsa'
p719
I1
sS'declared'
p720
I1
sS'next\xc2'
p721
I1
sS'sixyear'
p722
I1
sS'hamann'
p723
I1
sS'elected'
p724
I1
sS'press\xc2'
p725
I1
sS'college'
p726
I1
sS'sean'
p727
I1
sS'seal'
p728
I1
sS'stanley'
p729
I1
sS'fails'
p730
I1
sS'detect'
p731
I1
sS'federal'
p732
I1
sS'review'
p733
I2
sS'3'
I2
sS'staffer'
p734
I1
sS'altercation'
p735
I1
sS'israels'
p736
I1
sS'before'
p737
I2
sS'notice'
p738
I1
sS'infrastructure'
p739
I1
sS'jobs'
p740
I1
sS'screen'
p741
I2
sS'jr'
p742
I1
sS'killing'
p743
I2
sS'awards'
p744
I1
sS'3310'
p745
I1
sS'spark'
p746
I1
sS'come'
p747
I1
sS'reaction'
p748
I2
sS'rugby'
p749
I3
sS'monk'
p750
I1
sS'tour'
p751
I1
sS'workplace'
p752
I1
sS'gerald'
p753
I1
sS'senator'
p754
I1
sS'deported'
p755
I1
sS'duty'
p756
I1
sS'among'
p757
I2
sS'provocation'
p758
I1
sS'cancer'
p759
I1
sS'color'
p760
I1
sS'mccain'
p761
I3
sS'61'
p762
I2
sS'comeback'
p763
I1
sS'grand'
p764
I2
sS'west'
p765
I4
sS'mark'
p766
I1
sS'academical'
p767
I1
sS'puzders'
p768
I3
sS'wants'
p769
I2
sS'direction'
p770
I1
sS'benoit'
p771
I1
sS'thousand'
p772
I2
sS'andrew'
p773
I4
sS'dramatic'
p774
I1
sS'former'
p775
I3
sS'hodgson'
p776
I1
sS'paying'
p777
I1
sS'these'
p778
I1
sS'mount'
p779
I1
sS'cash'
p780
I2
sS'w'
I1
sS'warning'
p781
I1
sS'scum'
p782
I1
sS'life\xc2'
p783
I1
sS'rally'
p784
I4
sS'doctor'
p785
I1
sS'threatens'
p786
I2
sS'fewer'
p787
I1
sS'ceo'
p788
I3
sS'inquiry'
p789
I2
sS'insurers'
p790
I1
sS'week'
p791
I5
sS'finish'
p792
I2
sS'singapore'
p793
I1
sS'driver'
p794
I1
sS'companion'
p795
I1
sS'director'
p796
I1
sS'accountable'
p797
I1
sS'without'
p798
I2
sS'jongnam'
p799
I3
sS'dimension'
p800
I1
sS'gates'
p801
I2
sS'brisbane'
p802
I2
sS'pacquiao'
p803
I1
sS'gavin'
p804
I1
sS'kill'
p805
I3
sS'touch'
p806
I2
sS'weekly'
p807
I3
sS'mccorvey'
p808
I1
sS'announcement'
p809
I2
sS'death'
p810
I3
sS'asthma'
p811
I1
sS'tunisia'
p812
I1
sS'lunardi'
p813
I1
sS'4'
I1
sS'jong'
p814
I2
sS'ross'
p815
I1
sS'real'
p816
I1
sS'oxfords'
p817
I1
sS'around'
p818
I3
sS'gonna'
p819
I1
sS'early'
p820
I2
sS'hove'
p821
I1
sS'inflation'
p822
I1
sS'mom'
p823
I1
sS'vacuum'
p824
I1
sS'world'
p825
I6
sS'brennan'
p826
I1
sS'disappointed'
p827
I1
sS'exboxer'
p828
I2
sS'mourinho'
p829
I1
sS'intel'
p830
I1
sS'miracle'
p831
I1
sS'facing'
p832
I1
sS'benefit'
p833
I2
sS'wbc'
p834
I1
sS'madrid'
p835
I1
sS'haass'
p836
I1
sS'eddie'
p837
I1
sS'memories'
p838
I1
sS'ryan'
p839
I3
sS'legal'
p840
I1
sS'moon'
p841
I4
sS'critical'
p842
I1
sS'provides'
p843
I1
sS'flintoff'
p844
I1
sS'outage'
p845
I1
sS'power'
p846
I1
sS'seconds'
p847
I1
sS'dictators'
p848
I1
sS'leadership'
p849
I1
sS'brighton'
p850
I1
sS'on'
p851
I2
sS'central'
p852
I1
sS'nafta'
p853
I1
sS'stand'
p854
I2
sS'tariffs'
p855
I1
sS'quietly'
p856
I1
sS'trademark'
p857
I1
sS'snapchat'
p858
I1
sS'wade'
p859
I2
sS'superbugs'
p860
I1
sS'her'
p861
I1
sS'shells'
p862
I1
sS'philadelphia'
p863
I1
sS'start'
p864
I3
sS'lions'
p865
I1
sS'campaignlevel'
p866
I1
sS'lot'
p867
I1
sS'billion'
p868
I4
sS'warrington'
p869
I2
sS'suffers'
p870
I1
sS'clones'
p871
I2
sS'trying'
p872
I1
sS'with'
p873
I5
sS'hire'
p874
I2
sS'spotify'
p875
I1
sS'unveils'
p876
I2
sS'preside'
p877
I1
sS'500'
p878
I1
sS'strongly'
p879
I1
sS'taylor'
p880
I1
sS'leaked'
p881
I1
sS'politico'
p882
I1
sS'heseltine'
p883
I1
sS'al'
p884
I1
sS'watches'
p885
I1
sS'general'
p886
I3
sS'as'
p887
I1
sS'reliability'
p888
I1
sS'planets'
p889
I1
sS'politics'
p890
I1
sS'pedestal'
p891
I1
sS'film'
p892
I1
sS'field'
p893
I1
sS'5'
I5
sS'gustavito'
p894
I1
sS'you'
p895
I2
sS'shaun'
p896
I1
sS'championship'
p897
I1
sS'parkour'
p898
I1
sS'congress'
p899
I3
sS'rallies'
p900
I1
sS'peak'
p901
I1
sS'coverage'
p902
I2
sS'included'
p903
I1
sS'stocks'
p904
I2
sS'peugeot'
p905
I1
sS'pool'
p906
I1
sS'building'
p907
I1
sS'mourned'
p908
I1
sS'oneframe'
p909
I1
sS'invest'
p910
I1
sS'barcelona'
p911
I4
sS'moonlight'
p912
I7
sS'behavioral'
p913
I1
sS'ubers'
p914
I4
sS'bolton'
p915
I1
sS'aramco'
p916
I1
sS'all'
p917
I1
sS'skeleton'
p918
I2
sS'chinese'
p919
I2
sS'dollar'
p920
I1
sS'seals'
p921
I1
sS'talks'
p922
I1
sS'settlement'
p923
I2
sS'earthlike\xc2'
p924
I1
sS'schiff'
p925
I1
sS'tv'
p926
I4
sS'insulate'
p927
I1
sS'spirit'
p928
I2
sS'alberto'
p929
I1
sS'pledges'
p930
I1
sS'case'
p931
I2
sS'woman'
p932
I3
sS'premium'
p933
I1
sS'vert'
p934
I1
sS'insults'
p935
I1
sS'far'
p936
I1
sS'fas'
p937
I1
sS'sons'
p938
I1
sS'worst'
p939
I1
sS'condition'
p940
I1
sS'vern'
p941
I1
sS'cofounders'
p942
I1
sS'celebrity'
p943
I1
sS'list'
p944
I2
sS'large'
p945
I1
sS'saudi'
p946
I2
sS'199'
p947
I1
sS'past'
p948
I1
sS'rate'
p949
I2
sS'dial'
p950
I1
sS'richard'
p951
I1
sS'resume'
p952
I1
sS'ovarian'
p953
I1
sS'version'
p954
I1
sS'garth'
p955
I1
sS'learned'
p956
I1
sS'public'
p957
I2
sS'5000'
p958
I1
sS'christian'
p959
I1
sS'kimi'
p960
I1
sS'leeds'
p961
I1
sS'civilians'
p962
I1
sS'backlash'
p963
I1
sS'prosecutors'
p964
I1
sS'ahead'
p965
I3
sS'losses'
p966
I1
sS'soldier'
p967
I1
sS'airport'
p968
I1
sS'breakdown'
p969
I1
sS'action'
p970
I2
sS'limos'
p971
I1
sS'gabbiadini'
p972
I2
sS'farahs'
p973
I1
sS'abdel'
p974
I1
sS'career'
p975
I1
sS'select'
p976
I1
sS'khan'
p977
I1
sS'takes'
p978
I2
sS'prebuttal'
p979
I1
sS'two'
p980
I5
sS'competitor'
p981
I1
sS'correspondents'
p982
I1
sS'injury'
p983
I1
sS'markets'
p984
I3
sS'more'
p985
I4
sS'israel'
p986
I1
sS'livingstone'
p987
I1
sS'company'
p988
I1
sS'known'
p989
I1
sS'town'
p990
I1
sS'science'
p991
I1
sS'remain'
p992
I1
sS'nine'
p993
I1
sS'dem'
p994
I1
sS'morgan'
p995
I1
sS'v'
I6
sS'a4109'
p996
I1
sS'hotspur'
p997
I1
sS'male'
p998
I1
sS'history'
p999
I1
sS'f1'
p1000
I2
sS'shark'
p1001
I2
sS'brown'
p1002
I1
sS'the\xc2'
p1003
I1
sS'pushed'
p1004
I1
sS'pong'
p1005
I1
sS'goal'
p1006
I2
sS'breaking'
p1007
I1
sS'reject'
p1008
I1
sS'surpasses'
p1009
I1
sS'orchestrator'
p1010
I1
sS'plans'
p1011
I2
sS'soundtrack'
p1012
I1
sS'fa'
p1013
I7
sS'blood'
p1014
I1
sS'response'
p1015
I2
sS'a'
I3
sS'short'
p1016
I1
sS'puzder'
p1017
I1
sS'blunder'
p1018
I1
sS'renewing'
p1019
I1
sS'media'
p1020
I1
sS'dream'
p1021
I1
sS'infant'
p1022
I1
sS'help'
p1023
I2
sS'trade'
p1024
I2
sS'disabled'
p1025
I1
sS'radar'
p1026
I1
sS'scott'
p1027
I1
sS'committee'
p1028
I2
sS'hell'
p1029
I1
sS'its'
p1030
I8
sS'25'
p1031
I1
sS'27'
p1032
I1
sS'20'
p1033
I2
sS'22'
p1034
I1
sS'brexit\xc2'
p1035
I1
sS'late'
p1036
I1
sS'absence'
p1037
I1
sS'stephen'
p1038
I1
sS'speech'
p1039
I5
sS'might'
p1040
I3
sS'alter'
p1041
I1
sS'ally'
p1042
I1
sS'return'
p1043
I2
sS'seeking'
p1044
I1
sS'food'
p1045
I1
sS'propose'
p1046
I2
sS'framework'
p1047
I1
sS'malek'
p1048
I1
sS'milestone'
p1049
I1
sS'foot'
p1050
I1
sS'speculate'
p1051
I1
sS'bigger'
p1052
I1
sS'hails'
p1053
I1
sS'always'
p1054
I2
sS'watchdog'
p1055
I1
sS'spy'
p1056
I1
sS'shocking'
p1057
I1
sS'5000m'
p1058
I1
sS'status'
p1059
I1
sS'england'
p1060
I9
sS'hales'
p1061
I1
sS'house'
p1062
I9
sS'energy'
p1063
I1
sS'hard'
p1064
I1
sS'foxes'
p1065
I4
sS'expect'
p1066
I1
sS'beyond'
p1067
I1
sS'insurance'
p1068
I1
sS'really'
p1069
I2
sS'dominates'
p1070
I1
sS'ernie'
p1071
I1
sS'since'
p1072
I3
sS'publish'
p1073
I1
sS'health'
p1074
I4
sS'hill'
p1075
I2
sS'issue'
p1076
I2
sS'belief'
p1077
I1
sS'timeline'
p1078
I1
sS'populism'
p1079
I1
sS'bulls'
p1080
I1
sS'difficulty'
p1081
I1
sS'reason'
p1082
I1
sS'ask'
p1083
I1
sS'teach'
p1084
I1
sS'guy'
p1085
I2
sS'launch'
p1086
I3
sS'hoppers'
p1087
I1
sS'needing'
p1088
I1
sS'modularity'
p1089
I1
sS'americas'
p1090
I3
sS'american'
p1091
I1
sS'paire'
p1092
I1
sS'threat'
p1093
I1
sS'syria'
p1094
I1
sS'fallen'
p1095
I2
sS'major'
p1096
I1
sS'dont'
p1097
I3
sS'radical'
p1098
I1
sS'unexpected'
p1099
I1
sS'equating'
p1100
I1
sS'passes'
p1101
I1
sS'storm'
p1102
I1
sS'hundred'
p1103
I1
sS'jen'
p1104
I1
sS'selling'
p1105
I1
sS'option'
p1106
I1
sS'norma'
p1107
I1
sS'jamie'
p1108
I1
sS'hollywood'
p1109
I1
sS'obama'
p1110
I1
sS'king'
p1111
I2
sS'twister'
p1112
I1
sS'waterproofing'
p1113
I1
sS'defends'
p1114
I1
sS'dismantling'
p1115
I1
sS'marriage'
p1116
I1
sS'risks'
p1117
I1
sS'2022'
p1118
I1
sS'salazar'
p1119
I1
sS'motivation'
p1120
I1
sS'teslab'
p1121
I1
sS'nominee'
p1122
I3
sS'official'
p1123
I3
sS'murder'
p1124
I2
sS'aged'
p1125
I2
sS'vulnerable'
p1126
I1
sS'sell'
p1127
I2
sS'lie'
p1128
I1
sS'lil'
p1129
I1
sS'scotland'
p1130
I1
sS'auditions'
p1131
I1
sS'labour'
p1132
I2
sS'efl'
p1133
I2
sS'brace'
p1134
I1
sS'offscreen'
p1135
I1
sS'added'
p1136
I1
sS'quavo'
p1137
I1
sS'goldman'
p1138
I3
sS'reach'
p1139
I1
sS'gops'
p1140
I1
sS'plan'
p1141
I5
sS'70'
p1142
I1
sS'\xe2'
I1
sS'mobile'
p1143
I2
sS'attacking'
p1144
I1
sS'fifthround'
p1145
I2
sS'bellingham'
p1146
I1
sS'golf'
p1147
I1
sS'summer'
p1148
I1
sS'session'
p1149
I1
sS'costing'
p1150
I1
sS'impact'
p1151
I2
sS'access'
p1152
I1
sS'giant'
p1153
I3
sS'justice'
p1154
I1
sS'konta'
p1155
I1
sS'failed'
p1156
I1
sS'flights'
p1157
I1
sS'8'
I2
sS'sacking'
p1158
I3
sS'his'
p1159
I1
sS'dominant'
p1160
I1
sS'banned'
p1161
I1
sS'fastest'
p1162
I2
sS'years\xc2'
p1163
I1
sS'him'
p1164
I1
sS'dustin'
p1165
I1
sS'investigate'
p1166
I2
sS'spiked'
p1167
I1
sS'bellew'
p1168
I1
sS'coptic'
p1169
I1
sS'dayold'
p1170
I1
sS'set'
p1171
I4
sS'achieved'
p1172
I1
sS'startup'
p1173
I4
sS'sex'
p1174
I2
sS'wednesbury'
p1175
I1
sS'see'
p1176
I2
sS'defense'
p1177
I1
sS'are'
p1178
I4
sS'sea'
p1179
I1
sS'close'
p1180
I1
sS'aberdeen'
p1181
I1
sS'chinas'
p1182
I1
sS'expert'
p1183
I1
sS'movie'
p1184
I1
sS'raikkonen'
p1185
I1
sS'8yearold'
p1186
I1
sS'determined'
p1187
I1
sS'orbiting'
p1188
I1
sS'probably'
p1189
I1
sS'swansea'
p1190
I1
sS'muchloved'
p1191
I1
sS'blow'
p1192
I1
sS'korea'
p1193
I2
sS'nashville'
p1194
I1
sS'league'
p1195
I3
sS'watergatestyle'
p1196
I1
sS'became'
p1197
I2
sS'gamblers'
p1198
I1
sS'poverty'
p1199
I1
sS'vardy'
p1200
I1
sS'3615'
p1201
I1
sS'point'
p1202
I3
sS'battery'
p1203
I1
sS'community'
p1204
I2
sS'scottish'
p1205
I1
sS'suppressing'
p1206
I1
sS'decline'
p1207
I1
sS'raise'
p1208
I2
sS'political'
p1209
I1
sS'due'
p1210
I1
sS'strategy'
p1211
I1
sS'reduction'
p1212
I1
sS'complicated'
p1213
I2
sS'ireland'
p1214
I1
sS'meeting'
p1215
I3
sS'pm'
p1216
I1
sS'sanders'
p1217
I3
sS'flight'
p1218
I2
sS'1950s'
p1219
I1
sS'fire'
p1220
I1
sS'anthony'
p1221
I1
sS'demand'
p1222
I1
sS'look'
p1223
I1
sS'bill'
p1224
I9
sS'budget'
p1225
I6
sS'wyatt'
p1226
I1
sS'while'
p1227
I1
sS'match'
p1228
I3
sS'error'
p1229
I1
sS'guide'
p1230
I1
sS'pack'
p1231
I1
sS'pound'
p1232
I1
sS'reassure'
p1233
I1
sS'rip'
p1234
I1
sS'vow'
p1235
I1
sS'triple'
p1236
I1
sS'ready'
p1237
I2
sS'global\xc2'
p1238
I1
sS'confirms'
p1239
I1
sS'italy'
p1240
I4
sS'grant'
p1241
I1
sS'lastminute'
p1242
I1
sS'peoples'
p1243
I2
sS'federer'
p1244
I1
sS'arrives'
p1245
I1
sS'bonus'
p1246
I2
sS'blair'
p1247
I1
sS'burnley'
p1248
I2
sS'moment'
p1249
I2
sS'1000m'
p1250
I1
sS'vargas'
p1251
I1
sS'kurdish'
p1252
I1
sS'task'
p1253
I1
sS'earmark'
p1254
I1
sS'poland'
p1255
I1
sS'withdraw'
p1256
I1
sS'kelly'
p1257
I3
sS'organization'
p1258
I1
sS'clearance'
p1259
I1
sS'spend'
p1260
I2
sS'coup'
p1261
I1
sS'glitz'
p1262
I1
sS'paxtons'
p1263
I1
sS'openly'
p1264
I1
sS'circling'
p1265
I1
sS'cut'
p1266
I4
sS'cup'
p1267
I9
sS'snap'
p1268
I1
sS'march'
p1269
I2
sS'stein'
p1270
I1
sS'big'
p1271
I3
sS'bid'
p1272
I2
sS'lincoln'
p1273
I3
sS'game'
p1274
I4
sS'zlatan'
p1275
I1
sS'softbank'
p1276
I1
sS'carers'
p1277
I1
sS'like'
p1278
I1
sS'lost'
p1279
I1
sS'flub'
p1280
I1
sS'ignore'
p1281
I2
sS'essential'
p1282
I1
sS'google'
p1283
I4
sS'parade'
p1284
I2
sS'senate'
p1285
I1
sS'some'
p1286
I1
sS'back'
p1287
I5
sS'30m'
p1288
I1
sS'savage'
p1289
I2
sS'decision'
p1290
I1
sS'pen'
p1291
I2
sS'carjacking'
p1292
I2
sS'prof'
p1293
I1
sS'epic'
p1294
I1
sS'be'
p1295
I3
sS'potterabook'
p1296
I1
sS'crooks'
p1297
I1
sS'jumps'
p1298
I1
sS'stem'
p1299
I1
sS'usc'
p1300
I1
sS'by'
p1301
I1
sS'roundup'
p1302
I2
sS'anything'
p1303
I1
sS'blackburn'
p1304
I1
sS'range'
p1305
I1
sS'stuart'
p1306
I1
sS'womens'
p1307
I1
sS'shiny'
p1308
I1
sS'clinton'
p1309
I1
sS'caretaker'
p1310
I1
sS'aliens'
p1311
I2
sS'nobel'
p1312
I1
sS'pentagon'
p1313
I3
sS'impressed'
p1314
I1
sS'entitlement'
p1315
I1
sS'renewal'
p1316
I1
sS'spending'
p1317
I2
sS'question'
p1318
I2
sS'submit'
p1319
I1
sS'forward'
p1320
I1
sS'footage'
p1321
I1
sS'spat'
p1322
I1
sS'raggett'
p1323
I1
sS'himself'
p1324
I2
sS'russias'
p1325
I2
sS'jewish'
p1326
I1
sS'immigration'
p1327
I2
sS'glamour'
p1328
I1
sS'russian'
p1329
I3
sS'dy'
p1330
I11
sS'cia'
p1331
I1
sS'rejection'
p1332
I1
sS'utd'
p1333
I1
sS'oscars'
p1334
I11
sS'up'
p1335
I2
sS'us'
p1336
I25
sS'un'
p1337
I3
sS'prosecutor'
p1338
I2
sS'uk'
p1339
I2
sS'highlight'
p1340
I2
sS'chelsea'
p1341
I1
sS'called'
p1342
I2
sS'uber'
p1343
I3
sS'constant'
p1344
I1
sS'chao'
p1345
I1
sS'engineering'
p1346
I1
sS'diverse'
p1347
I1
sS'presides'
p1348
I1
sS'nationalism'
p1349
I1
sS'rainbow'
p1350
I1
sS'peace'
p1351
I1
sS'department'
p1352
I2
sS'mcdonnell'
p1353
I2
sS'mock'
p1354
I1
sS'islamofascism'
p1355
I1
sS'draw'
p1356
I2
sS'14000'
p1357
I1
sS'resign'
p1358
I1
sS'frances'
p1359
I1
sS'leaf'
p1360
I1
sS'samsungs'
p1361
I1
sS'revamped'
p1362
I1
sS'remix'
p1363
I1
sS'land'
p1364
I3
sS'age'
p1365
I3
sS'youtube'
p1366
I2
sS'bankers'
p1367
I1
sS'departs'
p1368
I1
sS'nasa'
p1369
I1
sS'2005'
p1370
I1
sS'svp'
p1371
I1
sS'mardi'
p1372
I1
sS'albion'
p1373
I1
sS'jason'
p1374
I1
sS'gp'
p1375
I1
sS'drivetribe\xc2'
p1376
I1
sS'softer'
p1377
I1
sS'gb'
p1378
I1
sS'go'
p1379
I4
sS'simon'
p1380
I1
sS'breached'
p1381
I1
sS'itll'
p1382
I1
sS'young'
p1383
I1
sS'send'
p1384
I1
sS'literary'
p1385
I1
sS'shackled'
p1386
I1
sS'include'
p1387
I1
sS'g6'
p1388
I1
sS'retire'
p1389
I1
sS'facebook'
p1390
I2
sS'touchline'
p1391
I1
sS'entire'
p1392
I1
sS'michael'
p1393
I2
sS'populist'
p1394
I1
sS'try'
p1395
I1
sS'car'
p1396
I3
sS'atletico'
p1397
I1
sS'ceasefire'
p1398
I1
sS'pussycats'
p1399
I1
sS'flu'
p1400
I1
sS'claudio'
p1401
I2
sS'jump'
p1402
I1
sS'odi'
p1403
I1
sS'video'
p1404
I29
sS'concludes'
p1405
I1
sS'dynamics'
p1406
I1
sS'ozobot'
p1407
I1
sS'giving'
p1408
I1
sS'cell'
p1409
I1
sS'psaki'
p1410
I1
sS'mnuchin'
p1411
I1
sS'firms'
p1412
I1
sS'bird'
p1413
I1
sS'led'
p1414
I1
sS'lee'
p1415
I1
sS'stance'
p1416
I2
sS'exxons'
p1417
I1
sS'let'
p1418
I1
sS'ukraine'
p1419
I1
sS'great'
p1420
I1
sS'31'
p1421
I3
sS'30'
p1422
I1
sS'titanic'
p1423
I1
sS'derby'
p1424
I1
sS'climb'
p1425
I1
sS'honor'
p1426
I1
sS'holmes'
p1427
I1
sS'lords'
p1428
I1
sS'win'
p1429
I14
sS'app'
p1430
I1
sS'siri'
p1431
I1
sS'private'
p1432
I2
sS'manny'
p1433
I1
sS'cloud'
p1434
I1
sS'fed'
p1435
I2
sS'from'
p1436
I2
sS'next'
p1437
I3
sS'doubt'
p1438
I1
sS'cheeky'
p1439
I1
sS'vehicle'
p1440
I1
sS'jonathan'
p1441
I1
sS'started'
p1442
I1
sS'heir'
p1443
I1
sS'baby'
p1444
I1
sS'customer'
p1445
I1
sS'account'
p1446
I1
sS'norkett'
p1447
I1
sS'this'
p1448
I4
sS'challenge'
p1449
I1
sS'unreal'
p1450
I1
sS'praise'
p1451
I1
sS'meet'
p1452
I2
sS'drops'
p1453
I1
sS'process'
p1454
I2
sS'lock'
p1455
I1
sS'tax'
p1456
I2
sS'high'
p1457
I1
sS'something'
p1458
I2
sS'hit'
p1459
I3
sS'sir'
p1460
I1
sS'united'
p1461
I4
sS'democracy'
p1462
I2
sS'hydrogen'
p1463
I1
sS'six'
p1464
I8
sS'unites'
p1465
I1
sS'attend'
p1466
I2
sS'abuse'
p1467
I4
sS'ethnic'
p1468
I1
sS'boeing'
p1469
I1
sS'israelipalestinian'
p1470
I1
sS'chief'
p1471
I1
sS'mcgill'
p1472
I1
sS'become\xc2'
p1473
I1
sS'producer'
p1474
I1
sS'move'
p1475
I1
sS'alliance'
p1476
I1
sS'galaxy'
p1477
I1
sS'warren'
p1478
I2
sS'lg'
p1479
I2
sS'le'
p1480
I3
sS'exclusion'
p1481
I1
sS'la'
p1482
I5
sS'nostalgia'
p1483
I1
sS'labor'
p1484
I2
sS'permanent'
p1485
I1
sS'2018'
p1486
I4
sS'2017'
p1487
I19
sS'2016'
p1488
I4
sS'pixel'
p1489
I1
sS'pending'
p1490
I1
sS'dad'
p1491
I1
sS'crash'
p1492
I3
sS'dan'
p1493
I1
sS'nokia'
p1494
I1
sS'p10'
p1495
I1
sS'geert'
p1496
I1
sS'republican'
p1497
I2
sS'day'
p1498
I9
sS'presidential'
p1499
I1
sS'grumbling'
p1500
I1
sS'commonwealth'
p1501
I1
sS'suitors'
p1502
I1
sS'filmmaking'
p1503
I1
sS'80'
p1504
I2
sS'sexual'
p1505
I2
sS'special'
p1506
I5
sS'out'
p1507
I2
sS'rey'
p1508
I1
sS'chaos'
p1509
I2
sS'your'
p1510
I2
sS'britons'
p1511
I1
sS'red'
p1512
I5
sS'common'
p1513
I1
sS'disclose'
p1514
I2
sS'cricketer'
p1515
I1
sS'durban'
p1516
I1
sS'spot'
p1517
I1
sS'ban'
p1518
I1
sS'york'
p1519
I2
sS'bilden'
p1520
I1
sS'philip'
p1521
I1
sS'allies'
p1522
I1
sS'could'
p1523
I5
sS'florida'
p1524
I2
sS'times'
p1525
I1
sS'chicken'
p1526
I1
sS'south'
p1527
I1
sS'evans'
p1528
I1
sS'roadshow\xc2'
p1529
I1
sS'owner'
p1530
I1
sS'rovers'
p1531
I2
sS'prank'
p1532
I2
sS'cnngo'
p1533
I1
sS'system'
p1534
I1
sS'their'
p1535
I4
sS'attack'
p1536
I6
sS'wilders'
p1537
I1
sS'final'
p1538
I3
sS'pathogen'
p1539
I1
sS'low'
p1540
I1
sS'nobody'
p1541
I2
sS'ben'
p1542
I2
sS'compensation'
p1543
I1
sS'flynn'
p1544
I1
sS'briefing'
p1545
I1
sS'migration'
p1546
I1
sS'recuse'
p1547
I2
sS'muir'
p1548
I2
sS'robot'
p1549
I1
sS'have'
p1550
I2
sS'need'
p1551
I3
sS'border'
p1552
I2
sS'4000'
p1553
I1
sS'agency'
p1554
I1
sS'mix'
p1555
I1
sS'demolished'
p1556
I1
sS'best'
p1557
I7
sS'tactic'
p1558
I1
sS'soar'
p1559
I1
sS'agenda'
p1560
I1
sS'who'
p1561
I1
sS'aws'
p1562
I1
sS'furious'
p1563
I1
sS'01'
p1564
I1
sS'medal'
p1565
I1
sS'why'
p1566
I7
sS'pips'
p1567
I1
sS'face'
p1568
I2
sS'opts'
p1569
I1
sS'away'
p1570
I2
sS'text'
p1571
I1
sS'indoor'
p1572
I1
sS'bring'
p1573
I1
sS'manchester'
p1574
I2
sS'democrats'
p1575
I1
sS'rough'
p1576
I1
sS'feat'
p1577
I1
sS'debate'
p1578
I1
sS'decade'
p1579
I1
sS'staff'
p1580
I1
sS'kraft'
p1581
I1
sS'winner'
p1582
I4
sS'should'
p1583
I1
sS'terminal'
p1584
I1
sS'employee'
p1585
I1
sS'millwall'
p1586
I2
sS'boris'
p1587
I1
sS'staffwide\xc2'
p1588
I1
sS'handle'
p1589
I1
sS'beat'
p1590
I4
sS'joint'
p1591
I1
sS'burglary'
p1592
I1
sS'argues'
p1593
I1
sS'thrives'
p1594
I1
sS'freekick'
p1595
I1
sS'cotter'
p1596
I1
sS'gras'
p1597
I1
sS'calling'
p1598
I2
sS'allegation'
p1599
I2
sS'mercedes'
p1600
I1
sS'grab'
p1601
I1
sS'graf'
p1602
I1
sS'untrue'
p1603
I1
sS'frame'
p1604
I1
sS'travis'
p1605
I1
sS'officials'
p1606
I1
sS'driveway'
p1607
I1
sS'unfairly'
p1608
I1
sS'closer'
p1609
I1
sS'nuclear'
p1610
I1
sS'state'
p1611
I4
sS'supernatural'
p1612
I1
sS'musks'
p1613
I1
sS'email'
p1614
I3
sS'amazon'
p1615
I1
sS'opening'
p1616
I1
sS'job'
p1617
I4
sS'takeover'
p1618
I1
sS'joe'
p1619
I1
sS'key'
p1620
I4
sS'netflixs'
p1621
I1
sS'wilbur'
p1622
I1
sS'admin'
p1623
I1
sS'olga'
p1624
I1
sS'drug'
p1625
I1
sS'rb13'
p1626
I1
sS'april'
p1627
I1
sS'trumps'
p1628
I10
sS'volley'
p1629
I1
sS'heart'
p1630
I1
sS'grounds'
p1631
I1
sS'withdraws'
p1632
I3
sS'wall'
p1633
I1
sS'tuesday'
p1634
I1
sS'migrant'
p1635
I2
sS'respect'
p1636
I1
sS'bbc'
p1637
I7
sS'farah'
p1638
I1
sS'responds'
p1639
I1
sS'fingleton'
p1640
I1
sS'treat'
p1641
I1
sS'of\xc2'
p1642
I2
sS'reshape'
p1643
I1
sS'liverpool'
p1644
I6
sS'overwhelmingly'
p1645
I1
sS'netanyahu'
p1646
I3
sS'forge'
p1647
I1
sS'bull'
p1648
I1
sS'tanks'
p1649
I1
sS'smartphones'
p1650
I1
sS'britain'
p1651
I1
sS'will'
p1652
I2
sS'rigged'
p1653
I1
sS'ncaa'
p1654
I1
sS'breathing\xc2'
p1655
I1
sS'bicker'
p1656
I1
sS'almost'
p1657
I3
sS'surface'
p1658
I1
sS'inquest'
p1659
I1
sS'wework'
p1660
I1
sS'tapper'
p1661
I1
sS'administration'
p1662
I3
sS'eric'
p1663
I1
sS'member'
p1664
I1
sS'party'
p1665
I1
sS'terrorism'
p1666
I2
sS'inc'
p1667
I1
sS'injured'
p1668
I2
sS'spell'
p1669
I1
sS'columbia'
p1670
I1
sS'premiere'
p1671
I1
sS'upon'
p1672
I1
sS'beast'
p1673
I1
sS'student'
p1674
I1
sS'celtic'
p1675
I1
sS'correspondent'
p1676
I2
sS'off'
p1677
I2
sS'center'
p1678
I1
sS'i'
I3
sS'thought'
p1679
I2
sS'patterns'
p1680
I1
sS'drone'
p1681
I1
sS'soviet'
p1682
I1
sS'realised'
p1683
I1
sS'restore'
p1684
I1
sS'taller'
p1685
I1
sS'kiss'
p1686
I1
sS'rocket'
p1687
I2
sS'21000'
p1688
I1
sS'wagner'
p1689
I1
sS'sources'
p1690
I1
sS'blackpool'
p1691
I1
sS'posttillerson'
p1692
I1
sS'paul'
p1693
I2
sS'nokias'
p1694
I1
sS'liverpools'
p1695
I1
sS'jeff'
p1696
I2
sS'killed'
p1697
I2
sS'bobsleigh'
p1698
I1
sS'nato'
p1699
I1
sS'kick'
p1700
I1
sS'motherwell'
p1701
I1
sS'fate'
p1702
I1
sS'government'
p1703
I1
sS'checking'
p1704
I1
sS'cruz'
p1705
I1
sS'historic'
p1706
I1
sS'five'
p1707
I3
sS'know'
p1708
I2
sS'press'
p1709
I3
sS'dubai'
p1710
I5
sS'helpful'
p1711
I1
sS'success'
p1712
I1
sS'loses'
p1713
I1
sS'lose'
p1714
I2
sS'chick'
p1715
I1
sS'soft'
p1716
I1
sS'because'
p1717
I1
sS'dhss'
p1718
I1
sS'village'
p1719
I1
sS'hail'
p1720
I1
sS'durants'
p1721
I1
sS'growth'
p1722
I1
sS'home'
p1723
I5
sS'transport'
p1724
I1
sS'jeremy'
p1725
I3
sS'lead'
p1726
I1
sS'leak'
p1727
I3
sS'does'
p1728
I1
sS'three'
p1729
I3
sS'leader'
p1730
I1
sS'sportsday'
p1731
I1
sS'reaching'
p1732
I1
sS'chokes'
p1733
I1
sS'breadwinner'
p1734
I1
sS'pietersen'
p1735
I1
sS'stay'
p1736
I1
sS'stage'
p1737
I3
sS'ranieri'
p1738
I4
sS'about'
p1739
I2
sS'rare'
p1740
I1
sS'getting'
p1741
I1
sS'urged'
p1742
I1
sS'surge'
p1743
I1
sS'perks'
p1744
I1
sS'fatally'
p1745
I1
sS'triggshodge'
p1746
I1
sS'own'
p1747
I1
sS'billions'
p1748
I1
sS'referendum'
p1749
I1
sS'promise'
p1750
I2
sS'female'
p1751
I1
sS'cnncom'
p1752
I1
sS'nuke'
p1753
I1
sS'van'
p1754
I1
sS'transfer'
p1755
I1
sS'apps'
p1756
I1
sS'in\xc2'
p1757
I1
sS'north'
p1758
I2
sS'chatting'
p1759
I1
sS'shane'
p1760
I1
sS'funds'
p1761
I2
sS'agrees'
p1762
I1
sS'delivery'
p1763
I1
sS'mclaren'
p1764
I1
sS'highest'
p1765
I1
sS'he'
p1766
I2
sS'made'
p1767
I1
sS'whether'
p1768
I1
sS'j'
I1
sS'signed'
p1769
I2
sS'record'
p1770
I3
sS'chairmanship'
p1771
I1
sS'limit'
p1772
I1
sS'casts'
p1773
I1
sS'dame'
p1774
I1
sS'fabregas'
p1775
I1
sS'measure'
p1776
I1
sS'twist'
p1777
I1
sS'app\xc2'
p1778
I1
sS'champion'
p1779
I1
sS'contest'
p1780
I1
sS'86'
p1781
I1
sS'eastern'
p1782
I1
sS'treatment'
p1783
I1
sS'40'
p1784
I1
sS'conclusion'
p1785
I1
sS'monday'
p1786
I1
sS'baffling'
p1787
I1
sS'bracketology'
p1788
I1
sS'chance'
p1789
I1
sS'repeal'
p1790
I3
sS'mastermind'
p1791
I1
sS'samsung'
p1792
I5
sS'rule'
p1793
I2
sS'commencement'
p1794
I1
ssS'_mapping'
p1795
(dp1796
g18
I325
sg19
I53
sg20
I509
sg21
I687
sg22
I94
sg23
I836
sg24
I832
sg25
I1693
sg26
I1109
sg27
I1682
sg28
I1519
sg29
I1513
sg30
I1695
sg31
I443
sg32
I51
sg33
I163
sg34
I1233
sg35
I1044
sg36
I341
sg37
I1205
sg38
I1304
sg39
I281
sg40
I986
sg41
I1046
sg42
I501
sg43
I711
sg44
I1118
sg45
I1758
sg46
I1479
sg47
I111
sg48
I1580
sg49
I1261
sg50
I1359
sg51
I1078
sg52
I263
sg53
I180
sg54
I685
sg55
I700
sg56
I1380
sg57
I571
sg58
I914
sg59
I1550
sg60
I1321
sg61
I228
sg62
I264
sg63
I1147
sg64
I213
sg65
I1698
sg66
I831
sg67
I40
sg68
I1573
sg69
I1025
sg70
I1156
sg71
I358
sg72
I112
sg73
I764
sg74
I437
sg75
I335
sg76
I99
sg77
I1703
sg78
I138
sg79
I344
sg80
I783
sg81
I1237
sg82
I563
sg83
I989
sg84
I994
sg85
I830
sg86
I1053
sg87
I3
sg88
I1429
sg89
I26
sg90
I1041
sg91
I266
sg92
I1317
sg93
I1543
sg94
I370
sg95
I808
sg96
I1002
sg97
I617
sg98
I1296
sg99
I489
sg100
I1722
sg101
I1318
sg102
I250
sg103
I257
sg104
I134
sg105
I624
sg106
I995
sg107
I1661
sg108
I1126
sg109
I1301
sg110
I569
sg111
I1678
sg112
I1751
sg113
I69
sg114
I156
sg115
I1711
sg116
I1146
sg117
I593
sg118
I1172
sg119
I908
sg120
I1679
sg121
I1780
sg122
I1390
sg123
I736
sg124
I657
sg125
I1264
sg126
I74
sg127
I484
sg128
I907
sg129
I1084
sg130
I1050
sg131
I270
sg132
I1770
sg133
I931
sg134
I904
sg135
I678
sg136
I1420
sg137
I397
sg138
I1395
sg139
I1355
sg140
I1155
sg141
I653
sg142
I375
sg143
I17
sg144
I1211
sg145
I1667
sg146
I157
sg147
I1684
sg148
I1671
sg149
I499
sg150
I1676
sg151
I1675
sg152
I620
sg153
I727
sg154
I552
sg155
I1691
sg156
I34
sg157
I1724
sg158
I1165
sg159
I1128
sg160
I104
sg161
I1664
sg162
I391
sg163
I1617
sg164
I1162
sg165
I1276
sg166
I1090
sg167
I1247
sg168
I260
sg169
I255
sg170
I1536
sg171
I1539
sg172
I682
sg173
I1561
sg174
I800
sg175
I550
sg176
I889
sg177
I203
sg178
I613
sg179
I1707
sg180
I1333
sg181
I862
sg182
I288
sg183
I1010
sg184
I197
sg185
I1615
sg12
I0
sg186
I286
sg187
I262
sg188
I756
sg189
I1495
sg190
I1185
sg191
I1036
sg192
I160
sg193
I1086
sg194
I702
sg195
I173
sg196
I1055
sg197
I127
sg198
I671
sg199
I56
sg200
I70
sg201
I1337
sg202
I487
sg203
I1242
sg204
I1399
sg205
I761
sg206
I1217
sg207
I172
sS'\xc2'
I802
sg208
I221
sg209
I422
sg210
I1487
sg211
I492
sg212
I380
sg213
I236
sg214
I488
sg215
I1741
sg216
I1743
sg217
I1518
sg218
I1706
sg219
I797
sg220
I1720
sg221
I1148
sg222
I1643
sg223
I1508
sg224
I357
sg225
I1713
sg226
I1173
sg227
I1105
sg228
I1116
sg229
I378
sg230
I1733
sg231
I390
sg232
I634
sg233
I1578
sg234
I1294
sg235
I574
sg236
I22
sg237
I123
sg238
I540
sg239
I1000
sg240
I999
sg241
I607
sg242
I408
sg243
I1406
sg244
I1193
sg245
I84
sg246
I1097
sg247
I1391
sg248
I485
sg249
I63
sg250
I1028
sg251
I1308
sg252
I987
sg253
I265
sg254
I348
sg255
I561
sg256
I1329
sg257
I686
sg258
I1246
sg259
I289
sg260
I716
sg261
I381
sg262
I793
sg263
I614
sg264
I1756
sg265
I1309
sg266
I662
sg267
I191
sg268
I114
sg269
I1107
sg270
I1240
sg271
I1477
sg272
I1714
sg273
I556
sg274
I714
sg275
I465
sg276
I1747
sg277
I1537
sg278
I1533
sg279
I436
sg280
I345
sg281
I1555
sg282
I1558
sg283
I1738
sg284
I953
sg285
I1601
sg286
I1183
sg287
I145
sg288
I699
sg289
I897
sg290
I1410
sg291
I1626
sg292
I1192
sg293
I606
sg294
I1362
sg295
I86
sg296
I140
sg297
I1655
sg298
I1006
sg299
I903
sg300
I1486
sg301
I1423
sg302
I1694
sg303
I242
sg304
I1122
sg305
I298
sg306
I1070
sg307
I1749
sg308
I1160
sg309
I977
sg310
I1223
sg311
I455
sg312
I316
sg313
I954
sg314
I536
sg315
I48
sg316
I1730
sg317
I1599
sg318
I1228
sg319
I1665
sg320
I712
sg321
I229
sg322
I1700
sg323
I1019
sg324
I1708
sg325
I121
sg326
I1405
sg327
I639
sg328
I871
sg329
I1736
sg330
I1637
sg331
I710
sg332
I186
sg333
I1660
sg334
I44
sg335
I1256
sg336
I1339
sg337
I894
sg338
I1734
sg339
I146
sg340
I1630
sg341
I1213
sg342
I102
sg343
I1478
sg344
I1059
sg345
I1054
sg346
I1214
sg347
I399
sg348
I31
sg349
I491
sg350
I1134
sg351
I554
sg352
I33
sg353
I510
sg354
I1704
sg355
I362
sg356
I1584
sg357
I803
sg358
I1177
sg359
I361
sg360
I1527
sg361
I1348
sg362
I1340
sg363
I1266
sg364
I1687
sg365
I1683
sg366
I1455
sg367
I75
sg368
I1650
sg369
I28
sg370
I566
sg371
I319
sg372
I209
sg373
I1289
sg374
I175
sg375
I649
sg376
I471
sg377
I486
sg378
I791
sg379
I506
sg380
I251
sg381
I1373
sg382
I199
sg383
I619
sg384
I1179
sg385
I10
sg386
I1349
sg387
I449
sg388
I1688
sg389
I925
sg390
I158
sg391
I1636
sg392
I1663
sg393
I1540
sg394
I1509
sg395
I1040
sg396
I195
sg397
I42
sg398
I597
sg399
I1593
sg400
I976
sg401
I1633
sg402
I261
sg403
I1649
sg404
I633
sg405
I205
sg406
I1052
sg407
I659
sg408
I1567
sg409
I1145
sg410
I516
sg411
I1257
sg412
I223
sg413
I1480
sg414
I415
sg415
I258
sg416
I1534
sg417
I1672
sg418
I1496
sg419
I1290
sg420
I1113
sg421
I106
sg422
I1083
sg423
I1613
sg424
I567
sg425
I1592
sg426
I248
sg427
I1042
sg428
I1737
sg429
I1004
sg430
I343
sg431
I782
sg432
I734
sg433
I1397
sg434
I1382
sg435
I813
sg436
I638
sg437
I926
sg438
I583
sg439
I280
sg440
I978
sg441
I366
sg442
I259
sg443
I858
sg444
I855
sg445
I331
sg446
I688
sg447
I1744
sg448
I312
sg449
I1384
sg450
I1475
sg451
I333
sg452
I1425
sg453
I599
sg454
I594
sg455
I275
sg456
I373
sg457
I559
sg458
I1273
sg459
I737
sg460
I1544
sg461
I385
sg462
I708
sg463
I1419
sg464
I1073
sg465
I609
sg466
I1459
sg467
I109
sg468
I1575
sg469
I778
sg470
I235
sg471
I945
sg472
I1061
sg473
I194
sg474
I115
sg475
I1031
sg476
I667
sg477
I860
sg478
I1195
sg479
I446
sg480
I444
sg481
I582
sg482
I1779
sg483
I154
sg484
I91
sg485
I1512
sg486
I584
sg487
I185
sg488
I883
sg489
I870
sg490
I1583
sg491
I1723
sg492
I292
sg493
I430
sg494
I529
sg495
I784
sg496
I1143
sg497
I1735
sg498
I323
sg499
I1164
sg500
I812
sg501
I294
sg502
I1764
sg503
I920
sg504
I1198
sg505
I1082
sg506
I511
sg507
I1133
sg508
I153
sg509
I705
sg510
I502
sg511
I462
sg512
I296
sg513
I698
sg514
I23
sg515
I1049
sg516
I1426
sg517
I1506
sg518
I124
sg519
I47
sg520
I1557
sg521
I1457
sg522
I1491
sg523
I551
sg524
I1096
sg525
I1353
sg526
I932
sg527
I303
sg528
I394
sg529
I957
sg530
I1742
sg531
I572
sg532
I1460
sg533
I786
sg534
I1
sg535
I278
sg536
I318
sg537
I1388
sg538
I949
sg539
I755
sg540
I1471
sg541
I586
sg542
I150
sg543
I1303
sg544
I1099
sg545
I1639
sg546
I1622
sg547
I1375
sS'1'
I865
sg548
I1323
sg549
I1609
sg550
I217
sg551
I1597
sg552
I87
sg553
I178
sg554
I751
sg555
I136
sg556
I68
sg557
I330
sg558
I1190
sg559
I515
sg560
I309
sg561
I171
sg562
I1085
sg563
I1585
sg564
I1659
sg565
I760
sg566
I1411
sg567
I553
sg568
I222
sg569
I387
sg570
I1545
sg571
I1481
sg572
I618
sg573
I1306
sg574
I1100
sg575
I909
sg576
I495
sg577
I980
sg578
I95
sg579
I767
sg580
I239
sg581
I1641
sg582
I1604
sg583
I458
sg584
I1106
sg585
I1327
sg586
I1352
sg587
I1511
sg588
I1174
sg589
I1689
sg590
I461
sg591
I899
sg592
I934
sg593
I721
sg594
I749
sg595
I1552
sg596
I1422
sg597
I188
sg598
I1364
sg599
I1034
sg600
I355
sg601
I512
sg602
I821
sg603
I1777
sg604
I1263
sg605
I589
sg606
I1251
sg607
I103
sg608
I291
sg609
I746
sg610
I305
sg611
I864
sg612
I1066
sg613
I1239
sg614
I101
sg615
I745
sg616
I285
sg617
I179
sg618
I644
sg619
I1662
sg620
I1149
sg621
I1282
sg622
I376
sg623
I215
sg624
I1632
sg625
I469
sg626
I781
sg627
I1668
sg628
I214
sg629
I1489
sg630
I1450
sg631
I77
sg632
I392
sg633
I1292
sg634
I706
sg635
I340
sg636
I130
sg637
I1778
sg638
I1033
sg639
I906
sS'2'
I174
sg640
I92
sg641
I1166
sg642
I149
sg643
I543
sg644
I1424
sg645
I545
sg646
I1020
sg647
I1022
sg648
I1249
sg649
I905
sg650
I433
sg651
I877
sg652
I902
sg653
I964
sg654
I886
sg655
I233
sg656
I1514
sg657
I625
sg658
I113
sg659
I299
sg660
I1588
sg661
I1598
sg662
I1178
sg663
I1638
sg664
I825
sg665
I666
sg666
I100
sg667
I675
sg668
I1690
sg669
I1209
sg670
I1612
sg671
I1775
sg672
I1370
sg673
I1365
sg674
I1569
sg675
I129
sg676
I1013
sg677
I810
sg678
I1258
sg679
I1674
sg680
I1281
sg681
I1619
sg682
I676
sg683
I1549
sg684
I1449
sg685
I1371
sg686
I917
sg687
I37
sg688
I442
sg689
I937
sg690
I677
sg691
I507
sg692
I1310
sg693
I429
sg694
I83
sg695
I1474
sg696
I453
sg697
I695
sg698
I851
sg699
I1502
sg700
I819
sg701
I520
sg702
I216
sg703
I629
sg704
I615
sg705
I55
sg706
I142
sg707
I1367
sg708
I45
sg709
I882
sg710
I1554
sg711
I820
sg712
I575
sg713
I1167
sg714
I468
sg715
I1199
sg716
I12
sg717
I1445
sg718
I1153
sg719
I1144
sg720
I652
sg721
I1398
sg722
I1014
sg723
I1430
sg724
I735
sg725
I952
sg726
I49
sg727
I413
sg728
I1608
sg729
I1416
sg730
I993
sg731
I769
sg732
I1267
sg733
I79
sS'3'
I284
sg734
I1434
sg735
I1189
sg736
I27
sg737
I435
sg738
I131
sg739
I1252
sg740
I513
sg741
I947
sg742
I472
sg743
I648
sg744
I641
sg745
I828
sg746
I152
sg747
I958
sg748
I1132
sg749
I869
sg750
I1186
sg751
I1319
sg752
I779
sg753
I1003
sg754
I1341
sg755
I997
sg756
I1458
sg757
I166
sg758
I170
sg759
I1442
sg760
I959
sg761
I208
sg762
I818
sg763
I854
sg764
I377
sg765
I16
sg766
I232
sg767
I1528
sg768
I67
sg769
I880
sg770
I739
sg771
I1201
sg772
I328
sg773
I59
sg774
I368
sg775
I841
sg776
I1634
sg777
I1092
sg778
I915
sg779
I1591
sg780
I1351
sS'w'
I1293
sg781
I57
sg782
I310
sg783
I240
sg784
I295
sg785
I627
sg786
I1250
sg787
I1670
sg788
I1473
sg789
I1008
sg790
I1220
sg791
I1032
sg792
I591
sg793
I998
sg794
I1582
sg795
I246
sg796
I1103
sg797
I207
sg798
I126
sg799
I647
sg800
I948
sg801
I350
sg802
I388
sg803
I656
sg804
I689
sg805
I353
sg806
I36
sg807
I226
sg808
I274
sg809
I979
sg810
I189
sg811
I823
sg812
I1435
sg813
I1787
sS'4'
I1313
sg814
I187
sg815
I1485
sg816
I164
sg817
I531
sg818
I1356
sg819
I537
sg820
I1170
sg821
I1525
sg822
I1064
sg823
I43
sg824
I151
sg825
I267
sg826
I1104
sg827
I421
sg828
I542
sg829
I1135
sg830
I1503
sg831
I367
sg832
I1523
sg833
I837
sg834
I694
sg835
I876
sg836
I162
sg837
I1024
sg838
I1497
sg839
I546
sg840
I304
sg841
I1357
sg842
I846
sg843
I1702
sg844
I1374
sg845
I1623
sg846
I1295
sg847
I434
sg848
I252
sg849
I777
sg850
I1524
sg851
I428
sg852
I1089
sg853
I1226
sg854
I13
sg855
I1229
sg856
I1614
sg857
I182
sg858
I719
sg859
I277
sg860
I464
sg861
I508
sg862
I1499
sg863
I1363
sg864
I524
sg865
I1204
sg866
I581
sg867
I1625
sg868
I701
sg869
I386
sg870
I1466
sg871
I717
sg872
I703
sg873
I519
sg874
I799
sg875
I1685
sg876
I943
sg877
I474
sg878
I1586
sg879
I204
sg880
I1553
sg881
I605
sg882
I733
sg883
I642
sg884
I1732
sg885
I417
sg886
I137
sg887
I1231
sg888
I169
sg889
I795
sg890
I1112
sg891
I1088
sg892
I1074
sg893
I317
sS'5'
I1191
sg894
I1368
sg895
I423
sg896
I379
sg897
I1788
sg898
I1404
sg899
I1274
sg900
I562
sg901
I901
sg902
I24
sg903
I1568
sg904
I898
sg905
I322
sg906
I910
sg907
I843
sg908
I548
sg909
I1039
sg910
I1312
sg911
I324
sg912
I637
sg913
I570
sg914
I776
sg915
I161
sg916
I919
sg917
I916
sg918
I663
sg919
I463
sg920
I1646
sg921
I1120
sg922
I1227
sg923
I5
sg924
I794
sg925
I1381
sg926
I212
sg927
I1443
sg928
I640
sg929
I600
sg930
I1254
sg931
I230
sg932
I302
sg933
I1140
sg934
I1765
sg935
I568
sg936
I1517
sg937
I913
sg938
I470
sg939
I940
sg940
I785
sg941
I672
sg942
I1681
sg943
I219
sg944
I988
sg945
I1218
sg946
I918
sg947
I697
sg948
I1101
sg949
I1648
sg950
I1244
sg951
I220
sg952
I1546
sg953
I1441
sg954
I1616
sg955
I1029
sg956
I1701
sg957
I1009
sg958
I234
sg959
I1629
sg960
I1541
sg961
I1350
sg962
I1379
sg963
I1412
sg964
I483
sg965
I416
sg966
I1590
sg967
I560
sg968
I650
sg969
I1465
sg970
I279
sg971
I1654
sg972
I852
sg973
I598
sg974
I360
sg975
I1547
sg976
I1719
sg977
I658
sg978
I1417
sg979
I1286
sg980
I1354
sg981
I1611
sg982
I723
sg983
I412
sg984
I922
sg985
I441
sg986
I8
sg987
I1206
sg988
I1393
sg989
I814
sg990
I933
sg991
I1328
sg992
I1414
sg993
I991
sg994
I1284
sg995
I1415
sS'v'
I276
sg996
I873
sg997
I856
sg998
I493
sg999
I941
sg1000
I1027
sg1001
I1409
sg1002
I1565
sg1003
I960
sg1004
I1759
sg1005
I1376
sg1006
I527
sg1007
I1624
sg1008
I144
sg1009
I1686
sg1010
I271
sg1011
I1094
sg1012
I1769
sg1013
I363
sg1014
I1439
sg1015
I457
sS'a'
I90
sg1016
I1635
sg1017
I60
sg1018
I1299
sg1019
I565
sg1020
I975
sg1021
I971
sg1022
I770
sg1023
I19
sg1024
I268
sg1025
I840
sg1026
I768
sg1027
I1768
sg1028
I1504
sg1029
I1492
sg1030
I420
sg1031
I1444
sg1032
I332
sg1033
I406
sg1034
I850
sg1035
I804
sg1036
I382
sg1037
I1782
sg1038
I50
sg1039
I990
sg1040
I81
sg1041
I1783
sg1042
I167
sg1043
I1203
sg1044
I183
sg1045
I452
sg1046
I82
sg1047
I148
sg1048
I1560
sg1049
I1075
sg1050
I411
sg1051
I1171
sg1052
I1045
sg1053
I498
sg1054
I890
sg1055
I118
sg1056
I1721
sg1057
I1114
sg1058
I372
sg1059
I1451
sg1060
I833
sg1061
I1316
sg1062
I595
sg1063
I1011
sg1064
I1095
sg1065
I1169
sg1066
I1221
sg1067
I884
sg1068
I1139
sg1069
I839
sg1070
I1403
sg1071
I842
sg1072
I612
sg1073
I1463
sg1074
I1219
sg1075
I128
sg1076
I15
sg1077
I1136
sg1078
I1297
sg1079
I1087
sg1080
I1776
sg1081
I1069
sg1082
I66
sg1083
I116
sg1084
I287
sg1085
I1235
sg1086
I432
sg1087
I1062
sg1088
I1243
sg1089
I946
sg1090
I713
sg1091
I1516
sg1092
I1202
sg1093
I610
sg1094
I85
sg1095
I1119
sg1096
I1151
sg1097
I18
sg1098
I750
sg1099
I1595
sg1100
I518
sg1101
I1644
sg1102
I176
sg1103
I1731
sg1104
I741
sg1105
I1336
sg1106
I1291
sg1107
I273
sg1108
I664
sg1109
I1753
sg1110
I1501
sg1111
I496
sg1112
I923
sg1113
I950
sg1114
I71
sg1115
I1335
sg1116
I1001
sg1117
I1413
sg1118
I1531
sg1119
I601
sg1120
I1784
sg1121
I245
sg1122
I64
sg1123
I39
sg1124
I211
sg1125
I817
sg1126
I313
sg1127
I1241
sg1128
I891
sg1129
I1763
sg1130
I1215
sg1131
I1750
sg1132
I811
sg1133
I848
sg1134
I1079
sg1135
I290
sg1136
I1230
sg1137
I1766
sg1138
I896
sg1139
I200
sg1140
I1727
sg1141
I440
sg1142
I1418
sS'\xe2'
I801
sg1143
I829
sg1144
I743
sg1145
I369
sg1146
I847
sg1147
I475
sg1148
I1760
sg1149
I1288
sg1150
I759
sg1151
I921
sg1152
I731
sg1153
I798
sg1154
I1574
sg1155
I409
sg1156
I107
sg1157
I1262
sS'8'
I65
sg1158
I668
sg1159
I1709
sg1160
I1343
sg1161
I1187
sg1162
I1175
sg1163
I1305
sg1164
I1071
sg1165
I1564
sg1166
I119
sg1167
I96
sg1168
I1338
sg1169
I1628
sg1170
I314
sg1171
I135
sg1172
I1208
sg1173
I225
sg1174
I1007
sg1175
I329
sg1176
I1631
sg1177
I1056
sg1178
I724
sg1179
I198
sg1180
I1642
sg1181
I1529
sg1182
I1067
sg1183
I1326
sg1184
I1757
sg1185
I1542
sg1186
I935
sg1187
I590
sg1188
I1248
sg1189
I1307
sg1190
I681
sg1191
I1366
sg1192
I1467
sg1193
I460
sg1194
I1746
sg1195
I1344
sg1196
I1718
sg1197
I1579
sg1198
I1476
sg1199
I1521
sg1200
I665
sg1201
I834
sg1202
I684
sg1203
I968
sg1204
I238
sg1205
I1080
sg1206
I254
sg1207
I740
sg1208
I283
sg1209
I32
sg1210
I588
sg1211
I1490
sg1212
I715
sg1213
I1283
sg1214
I696
sg1215
I1653
sg1216
I320
sg1217
I938
sg1218
I587
sg1219
I1063
sg1220
I1652
sg1221
I1037
sg1222
I1726
sg1223
I1386
sg1224
I349
sg1225
I892
sg1226
I616
sg1227
I796
sg1228
I654
sg1229
I1421
sg1230
I1065
sg1231
I757
sg1232
I1076
sg1233
I418
sg1234
I177
sg1235
I643
sg1236
I1194
sg1237
I1051
sg1238
I237
sg1239
I1483
sg1240
I835
sg1241
I181
sg1242
I1072
sg1243
I859
sg1244
I1200
sg1245
I480
sg1246
I427
sg1247
I346
sg1248
I337
sg1249
I981
sg1250
I404
sg1251
I693
sg1252
I549
sg1253
I1334
sg1254
I89
sg1255
I497
sg1256
I1456
sg1257
I402
sg1258
I1728
sg1259
I76
sg1260
I425
sg1261
I1159
sg1262
I984
sg1263
I924
sg1264
I1610
sg1265
I1378
sg1266
I1058
sg1267
I364
sg1268
I241
sg1269
I133
sg1270
I974
sg1271
I451
sg1272
I448
sg1273
I339
sg1274
I1154
sg1275
I1137
sg1276
I1311
sg1277
I1447
sg1278
I1372
sg1279
I927
sg1280
I1110
sg1281
I120
sg1282
I1656
sg1283
I881
sg1284
I635
sg1285
I1482
sg1286
I490
sg1287
I4
sg1288
I354
sg1289
I534
sg1290
I1428
sg1291
I505
sg1292
I541
sg1293
I962
sg1294
I992
sg1295
I728
sg1296
I1774
sg1297
I1030
sg1298
I1647
sg1299
I621
sg1300
I1739
sg1301
I564
sg1302
I227
sg1303
I1710
sg1304
I1571
sg1305
I1448
sg1306
I396
sg1307
I132
sg1308
I955
sg1309
I108
sg1310
I1180
sg1311
I815
sg1312
I1325
sg1313
I80
sg1314
I939
sg1315
I893
sg1316
I1515
sg1317
I1057
sg1318
I122
sg1319
I1603
sg1320
I1216
sg1321
I1407
sg1322
I1068
sg1323
I414
sg1324
I1494
sg1325
I1712
sg1326
I1360
sg1327
I439
sg1328
I985
sg1329
I38
sg1330
I272
sg1331
I1102
sg1332
I1468
sg1333
I849
sg1334
I636
sg1335
I450
sg1336
I168
sg1337
I6
sg1338
I748
sg1339
I608
sg1340
I863
sg1341
I679
sg1342
I30
sg1343
I773
sg1344
I35
sg1345
I1091
sg1346
I1345
sg1347
I725
sg1348
I297
sg1349
I93
sg1350
I961
sg1351
I20
sg1352
I301
sg1353
I690
sg1354
I1507
sg1355
I58
sg1356
I327
sg1357
I1669
sg1358
I1717
sg1359
I503
sg1360
I1392
sg1361
I951
sg1362
I438
sg1363
I1047
sg1364
I809
sg1365
I967
sg1366
I1618
sg1367
I1696
sg1368
I1346
sg1369
I792
sg1370
I972
sg1371
I1389
sg1372
I762
sg1373
I1526
sg1374
I1755
sg1375
I824
sg1376
I224
sg1377
I1125
sg1378
I661
sg1379
I293
sg1380
I1161
sg1381
I602
sg1382
I1224
sg1383
I1212
sg1384
I1396
sg1385
I1772
sg1386
I481
sg1387
I528
sg1388
I944
sg1389
I573
sg1390
I243
sg1391
I1188
sg1392
I1605
sg1393
I539
sg1394
I306
sg1395
I1729
sg1396
I218
sg1397
I875
sg1398
I523
sg1399
I1745
sg1400
I1453
sg1401
I557
sg1402
I1408
sg1403
I1666
sg1404
I11
sg1405
I231
sg1406
I1400
sg1407
I282
sg1408
I210
sg1409
I622
sg1410
I742
sg1411
I895
sg1412
I1461
sg1413
I1452
sg1414
I52
sg1415
I479
sg1416
I500
sg1417
I1469
sg1418
I1255
sg1419
I522
sg1420
I878
sg1421
I680
sg1422
I1437
sg1423
I816
sg1424
I1572
sg1425
I1253
sg1426
I1607
sg1427
I403
sg1428
I645
sg1429
I365
sg1430
I247
sg1431
I887
sg1432
I579
sg1433
I655
sg1434
I1498
sg1435
I1060
sg1436
I1673
sg1437
I626
sg1438
I165
sg1439
I532
sg1440
I631
sg1441
I1566
sg1442
I253
sg1443
I478
sg1444
I766
sg1445
I1012
sg1446
I1725
sg1447
I872
sg1448
I726
sg1449
I1522
sg1450
I1152
sg1451
I334
sg1452
I321
sg1453
I1077
sg1454
I21
sg1455
I547
sg1456
I1245
sg1457
I1015
sg1458
I1222
sg1459
I632
sg1460
I1150
sg1461
I1018
sg1462
I456
sg1463
I1500
sg1464
I670
sg1465
I1275
sg1466
I722
sg1467
I72
sg1468
I1464
sg1469
I139
sg1470
I147
sg1471
I1677
sg1472
I1038
sg1473
I806
sg1474
I982
sg1475
I1330
sg1476
I1596
sg1477
I1098
sg1478
I888
sg1479
I942
sg1480
I504
sg1481
I1570
sg1482
I807
sg1483
I1302
sg1484
I62
sg1485
I1182
sg1486
I1358
sg1487
I393
sg1488
I97
sg1489
I885
sg1490
I78
sg1491
I1121
sg1492
I874
sg1493
I1562
sg1494
I827
sg1495
I956
sg1496
I307
sg1497
I744
sg1498
I125
sg1499
I929
sg1500
I1697
sg1501
I1532
sg1502
I1602
sg1503
I970
sg1504
I912
sg1505
I790
sg1506
I482
sg1507
I517
sg1508
I692
sg1509
I466
sg1510
I426
sg1511
I1438
sg1512
I866
sg1513
I1657
sg1514
I1394
sg1515
I1551
sg1516
I1535
sg1517
I1440
sg1518
I1127
sg1519
I356
sg1520
I1130
sg1521
I1129
sg1522
I419
sg1523
I352
sg1524
I535
sg1525
I732
sg1526
I1520
sg1527
I141
sg1528
I1563
sg1529
I244
sg1530
I249
sg1531
I1559
sg1532
I192
sg1533
I1269
sg1534
I1692
sg1535
I577
sg1536
I718
sg1537
I308
sg1538
I398
sg1539
I351
sg1540
I202
sg1541
I1280
sg1542
I973
sg1543
I1142
sg1544
I29
sg1545
I730
sg1546
I1658
sg1547
I1493
sg1548
I374
sg1549
I1402
sg1550
I467
sg1551
I747
sg1552
I1387
sg1553
I1587
sg1554
I1268
sg1555
I1111
sg1556
I844
sg1557
I526
sg1558
I1023
sg1559
I1141
sg1560
I1331
sg1561
I628
sg1562
I1621
sg1563
I1762
sg1564
I338
sg1565
I1324
sg1566
I25
sg1567
I838
sg1568
I395
sg1569
I1576
sg1570
I826
sg1571
I389
sg1572
I400
sg1573
I88
sg1574
I1017
sg1575
I1277
sg1576
I1332
sg1577
I1207
sg1578
I646
sg1579
I184
sg1580
I336
sg1581
I445
sg1582
I383
sg1583
I424
sg1584
I651
sg1585
I774
sg1586
I384
sg1587
I514
sg1588
I787
sg1589
I1401
sg1590
I704
sg1591
I1287
sg1592
I1163
sg1593
I1581
sg1594
I1234
sg1595
I533
sg1596
I673
sg1597
I763
sg1598
I1716
sg1599
I73
sg1600
I1176
sg1601
I1790
sg1602
I1361
sg1603
I669
sg1604
I1181
sg1605
I1767
sg1606
I1265
sg1607
I729
sg1608
I9
sg1609
I1472
sg1610
I754
sg1611
I300
sg1612
I1748
sg1613
I1377
sg1614
I788
sg1615
I1620
sg1616
I476
sg1617
I592
sg1618
I447
sg1619
I1786
sg1620
I14
sg1621
I1117
sg1622
I1484
sg1623
I1385
sg1624
I1322
sg1625
I603
sg1626
I868
sg1627
I660
sg1628
I753
sg1629
I530
sg1630
I1556
sg1631
I1259
sg1632
I61
sg1633
I1232
sg1634
I1279
sg1635
I326
sg1636
I347
sg1637
I555
sg1638
I371
sg1639
I789
sg1640
I1157
sg1641
I7
sg1642
I965
sg1643
I1510
sg1644
I1168
sg1645
I143
sg1646
I2
sg1647
I1594
sg1648
I867
sg1649
I1238
sg1650
I966
sg1651
I805
sg1652
I41
sg1653
I930
sg1654
I1789
sg1655
I771
sg1656
I1278
sg1657
I911
sg1658
I1347
sg1659
I1436
sg1660
I1315
sg1661
I98
sg1662
I155
sg1663
I473
sg1664
I1715
sg1665
I738
sg1666
I54
sg1667
I1600
sg1668
I544
sg1669
I1773
sg1670
I193
sg1671
I1754
sg1672
I969
sg1673
I1752
sg1674
I196
sg1675
I405
sg1676
I596
sg1677
I1225
sg1678
I269
sS'i'
I110
sg1679
I190
sg1680
I772
sg1681
I1260
sg1682
I1320
sg1683
I983
sg1684
I1705
sg1685
I963
sg1686
I538
sg1687
I431
sg1688
I1645
sg1689
I1184
sg1690
I1431
sg1691
I845
sg1692
I1470
sg1693
I1271
sg1694
I1300
sg1695
I1530
sg1696
I1651
sg1697
I1369
sg1698
I861
sg1699
I206
sg1700
I1043
sg1701
I407
sg1702
I1761
sg1703
I117
sg1704
I1433
sg1705
I159
sg1706
I1298
sg1707
I822
sg1708
I1048
sg1709
I256
sg1710
I410
sg1711
I752
sg1712
I1021
sg1713
I691
sg1714
I707
sg1715
I315
sg1716
I1158
sg1717
I1589
sg1718
I1123
sg1719
I580
sg1720
I674
sg1721
I1781
sg1722
I454
sg1723
I46
sg1724
I1093
sg1725
I342
sg1726
I853
sg1727
I105
sg1728
I1016
sg1729
I683
sg1730
I1285
sg1731
I1131
sg1732
I900
sg1733
I1236
sg1734
I494
sg1735
I1210
sg1736
I1138
sg1737
I585
sg1738
I558
sg1739
I311
sg1740
I1446
sg1741
I1272
sg1742
I1462
sg1743
I1488
sg1744
I1699
sg1745
I936
sg1746
I1197
sg1747
I578
sg1748
I1680
sg1749
I1081
sg1750
I1124
sg1751
I630
sg1752
I1270
sg1753
I758
sg1754
I1606
sg1755
I1640
sg1756
I1627
sg1757
I1314
sg1758
I459
sg1759
I775
sg1760
I1548
sg1761
I576
sg1762
I1505
sg1763
I1577
sg1764
I1538
sg1765
I611
sg1766
I720
sg1767
I1427
sg1768
I928
sS'j'
I1342
sg1769
I1432
sg1770
I201
sg1771
I765
sg1772
I1026
sg1773
I1771
sg1774
I401
sg1775
I1035
sg1776
I1454
sg1777
I1115
sg1778
I780
sg1779
I1196
sg1780
I996
sg1781
I1005
sg1782
I521
sg1783
I623
sg1784
I857
sg1785
I1383
sg1786
I525
sg1787
I1108
sg1788
I1785
sg1789
I879
sg1790
I709
sg1791
I359
sg1792
I477
sg1793
I604
sg1794
I1740
ssS'_reverse_mapping'
p1797
(lp1798
g12
ag534
ag1646
ag87
ag1287
ag923
ag1337
ag1641
ag986
ag1608
ag385
ag1404
ag716
ag854
ag1620
ag1076
ag765
ag143
ag1097
ag1023
ag1351
ag1454
ag236
ag514
ag902
ag1566
ag89
ag736
ag369
ag1544
ag1342
ag348
ag1209
ag352
ag156
ag1344
ag806
ag687
ag1329
ag1123
ag67
ag1652
ag397
ag823
ag334
ag708
ag1723
ag519
ag315
ag726
ag1038
ag32
ag1414
ag19
ag1666
ag705
ag199
ag781
ag1355
ag773
ag1017
ag1632
ag1484
ag249
ag1122
aS'8'
ag1082
ag768
ag556
ag113
ag200
ag1114
ag1467
ag1599
ag126
ag367
ag1259
ag631
ag1490
ag733
ag1313
ag1040
ag1046
ag694
ag245
ag1094
ag295
ag552
ag1573
ag1254
aS'a'
ag484
ag640
ag1349
ag22
ag578
ag1167
ag1488
ag1661
ag76
ag666
ag614
ag342
ag607
ag160
ag1727
ag421
ag1156
ag1309
ag467
aS'i'
ag47
ag72
ag658
ag268
ag474
ag1083
ag1703
ag1055
ag1166
ag1281
ag325
ag1318
ag237
ag518
ag1498
ag798
ag197
ag1075
ag675
ag636
ag738
ag1307
ag1269
ag104
ag1171
ag555
ag886
ag78
ag1469
ag296
ag1527
ag706
ag1645
ag1008
ag287
ag339
ag1470
ag1047
ag642
ag542
ag824
ag746
ag508
ag483
ag1662
ag114
ag146
ag390
ag1705
ag192
ag915
ag836
ag33
ag816
ag1438
ag757
ag1042
ag1336
ag888
ag758
ag561
ag207
ag195
aS'2'
ag374
ag1102
ag1234
ag553
ag617
ag53
ag1241
ag857
ag1044
ag1579
ag487
ag332
ag814
ag597
ag810
ag1679
ag267
ag1532
ag1670
ag473
ag396
ag1674
ag184
ag1179
ag382
ag1139
ag1770
ag1540
ag177
ag879
ag405
ag1699
ag797
ag761
ag372
ag1408
ag1124
ag926
ag64
ag628
ag623
ag702
ag550
ag1396
ag943
ag951
ag208
ag568
ag412
ag1376
ag1173
ag807
ag1302
ag61
ag321
ag931
ag1405
ag766
ag655
ag958
ag470
ag213
ag1238
ag1204
ag580
ag783
ag1268
ag303
ag1390
ag1529
ag1121
ag795
ag1430
ag426
ag1530
ag102
ag380
ag848
ag1442
ag1206
ag169
ag1709
ag103
ag415
ag442
ag168
ag402
ag187
ag52
ag62
ag253
ag91
ag825
ag1024
ag1678
ag131
ag1010
ag1330
ag1107
ag808
ag455
aS'v'
ag859
ag535
ag970
ag439
ag39
ag1407
ag1208
aS'3'
ag616
ag186
ag1084
ag182
ag259
ag1135
ag608
ag492
ag1379
ag501
ag784
ag512
ag1348
ag305
ag659
ag1611
ag1352
ag932
ag527
ag840
ag610
ag1394
ag1496
ag1537
ag560
ag782
ag1739
ag448
ag1126
ag1170
ag1715
ag312
ag893
ag536
ag371
ag1216
ag1452
ag905
ag498
ag911
ag18
ag1635
ag1356
ag772
ag1175
ag557
ag445
ag1032
ag451
ag1451
ag75
ag1580
ag1248
ag1564
ag1273
ag635
ag36
ag1725
ag430
ag79
ag280
ag1247
ag1636
ag254
ag1224
ag801
ag1539
ag1523
ag805
ag1288
ag600
ag1519
ag224
ag71
ag1791
ag974
ag359
ag355
ag1013
ag1267
ag1429
ag441
ag831
ag774
ag1145
ag94
ag1638
ag1058
ag456
ag1548
ag142
ag622
ag764
ag229
ag896
ag212
ag261
ag1036
ag1582
ag1586
ag461
ag869
ag569
ag802
ag1571
ag231
ag162
ag632
ag1487
ag528
ag1568
ag1306
ag137
ag1538
ag347
ag1572
ag1774
ag1257
ag1427
ag1250
ag1675
ag1033
ag1701
ag242
ag1155
ag1710
ag1050
ag983
ag727
ag1323
ag414
ag965
ag885
ag1233
ag1522
ag1030
ag827
ag209
ag895
ag1583
ag1260
ag1510
ag1246
ag851
ag693
ag493
ag1687
ag1086
ag650
ag847
ag737
ag279
ag74
ag1362
ag1327
ag1141
ag985
ag688
ag31
ag480
ag1581
ag479
ag1618
ag1272
ag387
ag1335
ag1271
ag1045
ag696
ag1722
ag311
ag1462
ag1015
ag583
ag1758
ag1193
ag590
ag511
ag919
ag860
ag275
ag1509
ag1550
ag714
ag625
ag938
ag376
ag742
ag1663
ag877
ag1147
ag1616
ag1792
ag1443
ag1415
ag1245
ag1386
ag1506
ag964
ag127
ag248
ag377
ag202
ag214
ag99
ag1286
ag349
ag211
ag998
ag1734
ag576
ag1111
ag1255
ag1053
ag149
ag1416
ag42
ag510
ag1359
ag1480
ag1291
ag379
ag691
ag861
ag20
ag353
ag506
ag601
ag740
ag1587
ag559
ag410
ag1507
ag1100
ag873
ag701
ag1782
ag1419
ag1398
ag864
ag1786
ag1557
ag1006
ag1387
ag494
ag1629
ag817
ag1439
ag1595
ag1289
ag1524
ag314
ag819
ag1686
ag1393
ag238
ag1292
ag828
ag643
ag1668
ag645
ag839
ag1455
ag908
ag1252
ag175
ag523
ag154
ag567
ag351
ag1637
ag273
ag1401
ag1738
ag457
ag967
ag255
ag900
ag82
ag1301
ag1019
ag370
ag424
ag935
ag110
ag913
ag57
ag531
ag1389
ag235
ag712
ag1761
ag1535
ag1747
ag1432
ag1719
ag866
ag481
ag438
ag486
ag1737
ag541
ag1218
ag1210
ag605
ag1187
ag792
ag1617
ag117
ag454
ag1062
ag1676
ag398
ag973
ag453
ag929
ag1119
ag1381
ag1625
ag1793
ag881
ag293
ag241
ag1339
ag465
ag1093
ag1765
ag1072
ag178
ag263
ag704
ag1226
ag97
ag572
ag383
ag152
ag1299
ag1409
ag1783
ag105
ag657
ag1437
ag785
ag1561
ag703
ag1751
ag1440
ag1459
ag404
ag232
ag1284
ag1334
ag912
ag436
ag327
ag928
ag744
ag883
ag1235
ag618
ag1428
ag1578
ag799
ag743
ag375
ag968
ag1584
ag720
ag141
ag1228
ag1433
ag803
ag124
ag977
ag407
ag1627
ag1378
ag266
ag918
ag1108
ag1200
ag665
ag476
ag1158
ag1603
ag1464
ag198
ag941
ag1596
ag1720
ag667
ag682
ag690
ag135
ag1341
ag1421
ag1190
ag172
ag1729
ag1202
ag54
ag257
ag21
ag446
ag804
ag1353
ag1713
ag1508
ag1251
ag834
ag697
ag1214
ag947
ag513
ag288
ag55
ag868
ag194
ag872
ag1590
ag509
ag634
ag1714
ag462
ag1790
ag331
ag43
ag320
ag1090
ag274
ag1212
ag260
ag871
ag1536
ag858
ag1766
ag593
ag1466
ag982
ag1178
ag1347
ag1448
ag153
ag1295
ag1607
ag1545
ag1152
ag1525
ag882
ag432
ag724
ag123
ag459
ag1665
ag770
ag1207
ag1104
ag1410
ag1144
ag1497
ag615
ag609
ag1551
ag1338
ag594
ag1098
ag554
ag1711
ag1628
ag1610
ag539
ag188
ag1231
ag1753
ag1150
ag565
ag205
ag1372
ag1597
ag73
ag1771
ag1444
ag579
ag1026
ag731
ag1022
ag1655
ag1680
ag1343
ag1585
ag1759
ag914
ag849
ag469
ag752
ag1778
ag626
ag431
ag80
ag495
ag940
ag533
ag1588
ag1614
ag1639
ag1505
ag378
ag1369
ag262
ag924
ag889
ag1227
ag219
ag1153
ag874
ag174
aS'\xe2'
aS'\xc2'
ag357
ag1035
ag1651
ag1473
ag1482
ag95
ag1364
ag677
ag1132
ag500
ag435
ag989
ag1311
ag1423
ag1125
ag762
ag700
ag711
ag602
ag1707
ag811
ag1375
ag664
ag1570
ag1494
ag745
ag1143
ag85
ag66
ag24
ag1060
ag1201
ag1240
ag23
ag833
ag1567
ag1069
ag1025
ag775
ag1071
ag907
ag1556
ag1691
ag842
ag1146
ag1133
ag1333
ag1034
ag698
ag972
ag1726
ag763
ag444
ag997
ag1784
ag443
ag1243
ag477
ag1698
ag181
ag1340
ag611
aS'1'
ag1512
ag1648
ag1626
ag749
ag489
ag328
ag1447
ag996
ag1492
ag1397
ag835
ag651
ag1420
ag1789
ag769
ag1283
ag709
ag488
ag1067
ag1489
ag654
ag1431
ag1478
ag176
ag1054
ag1128
ag1225
ag1315
ag337
ag1411
ag1138
ag289
ag904
ag591
ag1732
ag901
ag652
ag299
ag134
ag649
ag639
ag128
ag119
ag575
ag906
ag1657
ag1504
ag937
ag58
ag778
ag917
ag686
ag946
ag916
ag503
ag1151
ag984
ag1112
ag1263
ag389
ag437
ag1279
ag1768
ag1499
ag1653
ag133
ag526
ag990
ag592
ag1186
ag1745
ag689
ag1217
ag1314
ag939
ag999
ag1479
ag876
ag1388
ag471
ag1089
ag741
ag800
ag538
ag1113
ag1361
ag725
ag284
ag313
ag1308
ag1495
ag529
ag747
ag760
ag1003
ag1350
ag1293
ag1685
ag653
ag1642
ag1650
ag1365
ag1203
ag1672
ag1503
ag1021
ag1370
ag1542
ag1270
ag1020
ag400
ag309
ag440
ag809
ag577
ag1249
ag1474
ag1683
ag1262
ag1328
ag40
ag252
ag944
ag83
ag1039
ag993
ag1294
ag730
ag84
ag106
ag1780
ag755
ag793
ag240
ag239
ag1116
ag96
ag753
ag429
ag1781
ag298
ag1174
ag789
ag957
ag183
ag1063
ag1445
ag676
ag722
ag1457
ag1728
ag1574
ag1461
ag323
ag646
ag1712
ag647
ag1558
ag837
ag69
ag1772
ag1000
ag250
ag955
ag1297
ag475
ag791
ag638
ag599
ag1775
ag191
ag1221
ag1472
ag909
ag395
ag90
ag427
ag1700
ag35
ag1052
ag41
ag1363
ag1708
ag515
ag130
ag1237
ag406
ag86
ag345
ag196
ag1177
ag1317
ag1266
ag344
ag1435
ag472
ag1087
ag1219
ag822
ag1230
ag612
ag1182
ag1322
ag1081
ag306
ag1164
ag1242
ag464
ag892
ag1049
ag1232
ag1453
ag51
ag1134
ag1205
ag1749
ag505
ag422
ag129
ag562
ag193
ag1079
ag891
ag852
ag166
ag1345
ag777
ag1724
ag1011
ag1064
ag524
ag246
ag1477
ag544
ag574
ag948
ag1331
ag796
ag826
ag227
ag584
ag269
ag1787
ag26
ag1280
ag1555
ag890
ag420
ag1057
ag1777
ag228
ag1621
ag44
ag1095
ag921
ag1491
ag304
ag1718
ag1750
ag1377
ag108
ag1518
ag159
ag1521
ag1520
ag1731
ag748
ag507
ag350
ag829
ag1077
ag1275
ag1736
ag1068
ag933
ag1559
ag1543
ag496
ag719
ag409
ag116
ag63
ag221
ag620
ag1460
ag1096
ag1450
ag718
ag1274
ag140
ag70
ag1640
ag1716
ag1261
ag308
ag1380
ag164
ag1592
ag499
ag158
ag641
ag713
ag1644
ag1065
ag820
ag1051
ag118
ag226
ag588
ag1162
ag1600
ag358
ag662
ag384
ag1310
ag1604
ag1485
ag286
ag1689
ag190
ag750
ag1161
ag1391
ag735
ag558
aS'5'
ag292
ag244
ag1236
ag478
ag1779
ag1746
ag504
ag715
ag1244
ag771
ag1092
ag1043
ag865
ag37
ag987
ag1577
ag1172
ag669
ag1735
ag144
ag1383
ag341
ag346
ag1130
ag1320
ag206
ag945
ag1074
ag790
ag1066
ag1458
ag310
ag1382
ag1677
ag853
ag922
ag318
ag855
ag1136
ag887
ag1633
ag34
ag1594
ag1085
ag1733
ag81
ag1649
ag613
ag270
ag1127
ag203
ag1088
ag950
ag1456
ag258
ag167
ag1188
ag648
ag786
ag606
ag739
ag1425
ag930
ag1418
ag335
ag411
ag678
ag1631
ag1681
ag49
ag1157
ag604
ag125
ag1606
ag363
ag732
ag1554
ag1533
ag1752
ag1693
ag1741
ag458
ag899
ag1465
ag165
ag1575
ag1656
ag1634
ag1541
ag680
ag621
ag1213
ag994
ag1730
ag979
ag1591
ag1149
ag373
ag419
ag1106
ag633
aS'w'
ag234
ag846
ag98
ag1078
ag1706
ag1018
ag1694
ag109
ag1483
ag543
ag38
ag1163
ag573
ag1189
ag251
ag265
ag692
ag1276
ag910
aS'4'
ag1757
ag1660
ag1061
ag92
ag101
ag751
ag1682
ag60
ag1624
ag548
ag1565
ag1312
ag1183
ag585
ag991
ag256
ag1475
ag1560
ag1576
ag180
ag1253
ag1115
ag1105
ag201
ag1168
ag336
ag362
ag754
aS'j'
ag1160
ag1195
ag1346
ag1368
ag1658
ag361
ag386
ag961
ag780
ag586
ag525
ag980
ag139
ag818
ag841
ag1486
ag50
ag1326
ag1602
ag294
ag863
ag598
ag673
ag1191
ag707
ag894
ag1697
ag672
ag685
ag1278
ag381
ag844
ag547
ag1005
ag1613
ag1265
ag962
ag56
ag925
ag434
ag1785
ag449
ag1623
ag1223
ag1552
ag537
ag1371
ag122
ag247
ag1360
ag988
ag1514
ag138
ag1384
ag433
ag721
ag204
ag1406
ag1589
ag1549
ag1070
ag898
ag326
ag243
ag1321
ag1402
ag1001
ag290
ag566
ag963
ag1117
ag992
ag995
ag729
ag978
ag1142
ag463
ag136
ag1229
ag596
ag301
ag644
ag452
ag516
ag1767
ag1290
ag88
ag723
ag1690
ag1769
ag1704
ag734
ag812
ag1659
ag1422
ag1511
ag1014
ag1517
ag953
ag759
ag927
ag1031
ag717
ag1740
ag1277
ag1305
ag684
ag630
ag1059
ag1413
ag1400
ag1776
ag366
ag1256
ag521
ag756
ag466
ag532
ag1412
ag1742
ag1073
ag1468
ag969
ag870
ag1192
ag1332
ag1417
ag1692
ag540
ag1609
ag788
ag695
ag450
ag1198
ag271
ag343
ag46
ag413
ag571
ag1285
ag1239
ag1622
ag815
ag300
ag210
ag1743
ag629
ag1211
ag522
ag1029
ag1547
ag1324
ag189
ag418
ag838
ag1434
ag862
ag1463
ag1110
ag699
ag830
ag1028
ag1762
ag517
ag1354
ag223
ag394
ag1643
ag587
ag485
ag29
ag656
ag1316
ag1091
ag936
ag217
ag28
ag1526
ag1199
ag1449
ag832
ag850
ag821
ag1373
ag360
ag767
ag1181
ag1695
ag1118
ag1501
ag278
ag416
ag1516
ag170
ag277
ag1764
ag171
ag393
ag960
ag1185
ag93
ag460
ag570
ag952
ag975
ag1760
ag683
ag59
ag1515
ag595
ag880
ag710
ag281
ag1630
ag520
ag282
ag1531
ag1048
ag173
ag1493
ag1528
ag1165
ag1002
ag1441
ag408
ag903
ag674
ag1481
ag1304
ag1424
ag68
ag1154
ag468
ag1569
ag1763
ag233
ag1197
ag48
ag1593
ag794
ag490
ag356
ag563
ag878
ag1553
ag660
ag1717
ag966
ag779
ag425
ag399
ag1647
ag1099
ag1476
ag551
ag661
ag317
ag1667
ag285
ag1502
ag1319
ag582
ag1392
ag1754
ag1426
ag728
ag549
ag1264
ag981
ag670
ag423
ag856
ag185
ag954
ag163
ag1366
ag681
ag1615
ag1562
ag546
ag845
ag1007
ag867
ag291
ag1756
ag1169
ag959
ag340
ag1176
ag624
ag401
ag776
ag1016
ag391
ag330
ag663
ag545
ag1755
ag581
ag1180
ag222
ag1101
ag1688
ag920
ag1298
ag949
ag403
ag368
ag1696
ag1220
ag1215
ag971
ag297
ag1282
ag1513
ag1546
ag564
ag333
ag107
ag619
ag392
ag161
ag319
ag1403
ag145
ag627
ag1357
ag787
ag148
ag417
ag1436
ag679
ag151
ag150
ag1471
ag111
ag120
ag1748
ag942
ag27
ag365
ag147
ag875
ag1009
ag364
ag388
ag589
ag668
ag155
ag1534
ag25
ag302
ag30
ag1367
ag1500
ag65
ag1744
ag322
ag956
ag843
ag77
ag354
ag1684
ag218
ag179
ag324
ag1159
ag1303
ag115
ag1325
ag225
ag272
ag1664
ag1598
ag1358
ag1196
ag976
ag220
ag1056
ag100
ag491
ag157
ag1446
ag1222
ag1140
ag1258
ag1395
ag316
ag1103
ag884
ag230
ag338
ag497
ag329
ag428
ag283
ag1300
ag1794
ag215
ag530
ag216
ag447
ag1399
ag1194
ag276
ag1612
ag307
ag1131
ag112
ag1673
ag1109
ag1671
ag1374
ag264
ag1184
ag45
ag1004
ag1148
ag1702
ag1563
ag1129
ag502
ag934
ag1137
ag1605
ag1027
ag1012
ag132
ag1773
ag1385
ag1669
ag1296
ag671
ag1080
ag603
ag637
ag482
ag121
ag1721
ag1037
ag1041
ag1120
ag1788
ag1619
ag813
ag897
ag1654
ag1601
asbsS'max_document_length'
p1799
I100
sS'_tokenizer'
p1800
ctensorflow.contrib.learn.python.learn.preprocessing.text
tokenizer
p1801
sS'min_frequency'
p1802
I0
sb.